
code9.elf:     file format elf32-bigmips


Disassembly of section .text.start:

10000000 <_entry>:
10000000:	3c051001 	lui	a1,0x1001
10000004:	24a50800 	addiu	a1,a1,2048
10000008:	3c041009 	lui	a0,0x1009
1000000c:	2484bc78 	addiu	a0,a0,-17288
10000010:	3c1c1001 	lui	gp,0x1001
10000014:	279c07f4 	addiu	gp,gp,2036
10000018:	3c1d2000 	lui	sp,0x2000
1000001c:	27bdfffc 	addiu	sp,sp,-4
10000020:	aca00000 	sw	zero,0(a1)
10000024:	00a4182a 	slt	v1,a1,a0
10000028:	24a50004 	addiu	a1,a1,4
1000002c:	1460fffc 	bnez	v1,10000020 <_entry+0x20>
10000030:	00000000 	nop
10000034:	0c000554 	jal	10001550 <main>
10000038:	00000000 	nop
1000003c:	3c1ae000 	lui	k0,0xe000
10000040:	af400000 	sw	zero,0(k0)
10000044:	1000ffff 	b	10000044 <_entry+0x44>
10000048:	00000000 	nop
	...

10000100 <_isr>:
10000100:	23bdff98 	addi	sp,sp,-104
10000104:	afa10010 	sw	at,16(sp)
10000108:	afa20014 	sw	v0,20(sp)
1000010c:	afa30018 	sw	v1,24(sp)
10000110:	afa4001c 	sw	a0,28(sp)
10000114:	afa50020 	sw	a1,32(sp)
10000118:	afa60024 	sw	a2,36(sp)
1000011c:	afa70028 	sw	a3,40(sp)
10000120:	afa8002c 	sw	t0,44(sp)
10000124:	afa90030 	sw	t1,48(sp)
10000128:	afaa0034 	sw	t2,52(sp)
1000012c:	afab0038 	sw	t3,56(sp)
10000130:	afac003c 	sw	t4,60(sp)
10000134:	afad0040 	sw	t5,64(sp)
10000138:	afae0044 	sw	t6,68(sp)
1000013c:	afaf0048 	sw	t7,72(sp)
10000140:	afb8004c 	sw	t8,76(sp)
10000144:	afb90050 	sw	t9,80(sp)
10000148:	afbf0054 	sw	ra,84(sp)
1000014c:	401a7000 	mfc0	k0,c0_epc
10000150:	235afffc 	addi	k0,k0,-4
10000154:	afba0058 	sw	k0,88(sp)
10000158:	0000d810 	mfhi	k1
1000015c:	afbb005c 	sw	k1,92(sp)
10000160:	0000d812 	mflo	k1
10000164:	afbb0060 	sw	k1,96(sp)
10000168:	3c052000 	lui	a1,0x2000
1000016c:	8ca40020 	lw	a0,32(a1)
10000170:	8ca60010 	lw	a2,16(a1)
10000174:	00862024 	and	a0,a0,a2
10000178:	0c000187 	jal	1000061c <_irq_handler>
1000017c:	27a50000 	addiu	a1,sp,0
10000180:	8fa10010 	lw	at,16(sp)
10000184:	8fa20014 	lw	v0,20(sp)
10000188:	8fa30018 	lw	v1,24(sp)
1000018c:	8fa4001c 	lw	a0,28(sp)
10000190:	8fa50020 	lw	a1,32(sp)
10000194:	8fa60024 	lw	a2,36(sp)
10000198:	8fa70028 	lw	a3,40(sp)
1000019c:	8fa8002c 	lw	t0,44(sp)
100001a0:	8fa90030 	lw	t1,48(sp)
100001a4:	8faa0034 	lw	t2,52(sp)
100001a8:	8fab0038 	lw	t3,56(sp)
100001ac:	8fac003c 	lw	t4,60(sp)
100001b0:	8fad0040 	lw	t5,64(sp)
100001b4:	8fae0044 	lw	t6,68(sp)
100001b8:	8faf0048 	lw	t7,72(sp)
100001bc:	8fb8004c 	lw	t8,76(sp)
100001c0:	8fb90050 	lw	t9,80(sp)
100001c4:	8fbf0054 	lw	ra,84(sp)
100001c8:	8fba0058 	lw	k0,88(sp)
100001cc:	8fbb005c 	lw	k1,92(sp)
100001d0:	03600011 	mthi	k1
100001d4:	8fbb0060 	lw	k1,96(sp)
100001d8:	03600013 	mtlo	k1
100001dc:	23bd0068 	addi	sp,sp,104

100001e0 <isr_return>:
100001e0:	341b0001 	li	k1,0x1
100001e4:	03400008 	jr	k0
100001e8:	409b6000 	mtc0	k1,c0_sr

100001ec <_interrupt_set>:
100001ec:	40026000 	mfc0	v0,c0_sr
100001f0:	40846000 	mtc0	a0,c0_sr
100001f4:	03e00008 	jr	ra
100001f8:	40846000 	mtc0	a0,c0_sr

100001fc <_interrupt_init>:
100001fc:	3c051000 	lui	a1,0x1000
10000200:	24a5022c 	addiu	a1,a1,556
10000204:	8ca60000 	lw	a2,0(a1)
10000208:	ac06003c 	sw	a2,60(zero)
1000020c:	8ca60004 	lw	a2,4(a1)
10000210:	ac060040 	sw	a2,64(zero)
10000214:	8ca60008 	lw	a2,8(a1)
10000218:	ac060044 	sw	a2,68(zero)
1000021c:	8ca6000c 	lw	a2,12(a1)
10000220:	ac060048 	sw	a2,72(zero)
10000224:	03e00008 	jr	ra
10000228:	00000000 	nop

1000022c <_irq_patch>:
1000022c:	3c1a1000 	lui	k0,0x1000
10000230:	275a0100 	addiu	k0,k0,256
10000234:	03400008 	jr	k0
10000238:	00000000 	nop

1000023c <_context_save>:
1000023c:	ac900000 	sw	s0,0(a0)
10000240:	ac910004 	sw	s1,4(a0)
10000244:	ac920008 	sw	s2,8(a0)
10000248:	ac93000c 	sw	s3,12(a0)
1000024c:	ac940010 	sw	s4,16(a0)
10000250:	ac950014 	sw	s5,20(a0)
10000254:	ac960018 	sw	s6,24(a0)
10000258:	ac97001c 	sw	s7,28(a0)
1000025c:	ac9e0020 	sw	s8,32(a0)
10000260:	ac9c0024 	sw	gp,36(a0)
10000264:	ac9d0028 	sw	sp,40(a0)
10000268:	ac9f002c 	sw	ra,44(a0)
1000026c:	03e00008 	jr	ra
10000270:	34020000 	li	v0,0x0

10000274 <_context_restore>:
10000274:	8c900000 	lw	s0,0(a0)
10000278:	8c910004 	lw	s1,4(a0)
1000027c:	8c920008 	lw	s2,8(a0)
10000280:	8c93000c 	lw	s3,12(a0)
10000284:	8c940010 	lw	s4,16(a0)
10000288:	8c950014 	lw	s5,20(a0)
1000028c:	8c960018 	lw	s6,24(a0)
10000290:	8c97001c 	lw	s7,28(a0)
10000294:	8c9e0020 	lw	s8,32(a0)
10000298:	8c9c0024 	lw	gp,36(a0)
1000029c:	8c9d0028 	lw	sp,40(a0)
100002a0:	8c9f002c 	lw	ra,44(a0)
100002a4:	341b0001 	li	k1,0x1
100002a8:	409b6000 	mtc0	k1,c0_sr
100002ac:	03e00008 	jr	ra
100002b0:	34a20000 	ori	v0,a1,0x0

Disassembly of section .text:

100002b4 <_idletask>:
100002b4:	080000ad 	j	100002b4 <_idletask>
100002b8:	00000000 	nop

100002bc <putchar>:
100002bc:	3c022000 	lui	v0,0x2000
100002c0:	ac4400d0 	sw	a0,208(v0)
100002c4:	03e00008 	jr	ra
100002c8:	00000000 	nop

100002cc <_hardware_init>:
100002cc:	3c032000 	lui	v1,0x2000
100002d0:	3c02a5a5 	lui	v0,0xa5a5
100002d4:	8c6400e0 	lw	a0,224(v1)
100002d8:	3442a5a5 	ori	v0,v0,0xa5a5
100002dc:	14820007 	bne	a0,v0,100002fc <_hardware_init+0x30>
100002e0:	3c022000 	lui	v0,0x2000
100002e4:	3c02017d 	lui	v0,0x17d
100002e8:	24427840 	addiu	v0,v0,30784
100002ec:	ac6200a0 	sw	v0,160(v1)
100002f0:	3c020004 	lui	v0,0x4
100002f4:	ac6200b0 	sw	v0,176(v1)
100002f8:	3c022000 	lui	v0,0x2000
100002fc:	ac400010 	sw	zero,16(v0)
10000300:	03e00008 	jr	ra
10000304:	00000000 	nop

10000308 <_vm_init>:
10000308:	3c041000 	lui	a0,0x1000
1000030c:	27bdffe8 	addiu	sp,sp,-24
10000310:	afbf0014 	sw	ra,20(sp)
10000314:	0c0001f9 	jal	100007e4 <kprintf>
10000318:	24842c84 	addiu	a0,a0,11396
1000031c:	8fbf0014 	lw	ra,20(sp)
10000320:	3c041001 	lui	a0,0x1001
10000324:	3c050007 	lui	a1,0x7
10000328:	24841a8c 	addiu	a0,a0,6796
1000032c:	34a5a120 	ori	a1,a1,0xa120
10000330:	08000668 	j	100019a0 <heapinit>
10000334:	27bd0018 	addiu	sp,sp,24

10000338 <_sched_init>:
10000338:	3c041000 	lui	a0,0x1000
1000033c:	080001f9 	j	100007e4 <kprintf>
10000340:	24842c98 	addiu	a0,a0,11416

10000344 <_timer_init>:
10000344:	27bdffe8 	addiu	sp,sp,-24
10000348:	3c041000 	lui	a0,0x1000
1000034c:	24842cac 	addiu	a0,a0,11436
10000350:	afb00010 	sw	s0,16(sp)
10000354:	afbf0014 	sw	ra,20(sp)
10000358:	0c0001f9 	jal	100007e4 <kprintf>
1000035c:	3c101000 	lui	s0,0x1000
10000360:	2605234c 	addiu	a1,s0,9036
10000364:	0c000179 	jal	100005e4 <_irq_register>
10000368:	24040008 	li	a0,8
1000036c:	2605234c 	addiu	a1,s0,9036
10000370:	0c000179 	jal	100005e4 <_irq_register>
10000374:	24040004 	li	a0,4
10000378:	3c032000 	lui	v1,0x2000
1000037c:	8c620010 	lw	v0,16(v1)
10000380:	8fbf0014 	lw	ra,20(sp)
10000384:	34420008 	ori	v0,v0,0x8
10000388:	8fb00010 	lw	s0,16(sp)
1000038c:	ac620010 	sw	v0,16(v1)
10000390:	03e00008 	jr	ra
10000394:	27bd0018 	addiu	sp,sp,24

10000398 <_irq_init>:
10000398:	3c041000 	lui	a0,0x1000
1000039c:	080001f9 	j	100007e4 <kprintf>
100003a0:	24842cc0 	addiu	a0,a0,11456

100003a4 <_device_init>:
100003a4:	3c041000 	lui	a0,0x1000
100003a8:	27bdffe8 	addiu	sp,sp,-24
100003ac:	afbf0014 	sw	ra,20(sp)
100003b0:	0c0001f9 	jal	100007e4 <kprintf>
100003b4:	24842cd4 	addiu	a0,a0,11476
100003b8:	8fbf0014 	lw	ra,20(sp)
100003bc:	0800074c 	j	10001d30 <ni_init>
100003c0:	27bd0018 	addiu	sp,sp,24

100003c4 <_task_init>:
100003c4:	3c041000 	lui	a0,0x1000
100003c8:	27bdffe0 	addiu	sp,sp,-32
100003cc:	24842cec 	addiu	a0,a0,11500
100003d0:	afbf001c 	sw	ra,28(sp)
100003d4:	0c0001f9 	jal	100007e4 <kprintf>
100003d8:	afb00018 	sw	s0,24(sp)
100003dc:	3c021000 	lui	v0,0x1000
100003e0:	24423500 	addiu	v0,v0,13568
100003e4:	afa20010 	sw	v0,16(sp)
100003e8:	3c041000 	lui	a0,0x1000
100003ec:	24020400 	li	v0,1024
100003f0:	00003025 	move	a2,zero
100003f4:	00003825 	move	a3,zero
100003f8:	248402b4 	addiu	a0,a0,692
100003fc:	00002825 	move	a1,zero
10000400:	0c000a4a 	jal	10002928 <hf_spawn>
10000404:	afa20014 	sw	v0,20(sp)
10000408:	0c000373 	jal	10000dcc <app_main>
1000040c:	3c101009 	lui	s0,0x1009
10000410:	3c021009 	lui	v0,0x1009
10000414:	8c45bc88 	lw	a1,-17272(v0)
10000418:	3c041000 	lui	a0,0x1000
1000041c:	0c0001f9 	jal	100007e4 <kprintf>
10000420:	24842d00 	addiu	a0,a0,11520
10000424:	3c041000 	lui	a0,0x1000
10000428:	0c0001f9 	jal	100007e4 <kprintf>
1000042c:	24842d20 	addiu	a0,a0,11552
10000430:	3c021001 	lui	v0,0x1001
10000434:	00002025 	move	a0,zero
10000438:	244208bc 	addiu	v0,v0,2236
1000043c:	0c000801 	jal	10002004 <hf_schedlock>
10000440:	ae02bc7c 	sw	v0,-17284(s0)
10000444:	8e04bc7c 	lw	a0,-17284(s0)
10000448:	8fbf001c 	lw	ra,28(sp)
1000044c:	8fb00018 	lw	s0,24(sp)
10000450:	24050001 	li	a1,1
10000454:	24840038 	addiu	a0,a0,56
10000458:	0800009d 	j	10000274 <_context_restore>
1000045c:	27bd0020 	addiu	sp,sp,32

10000460 <_set_task_sp>:
10000460:	3084ffff 	andi	a0,a0,0xffff
10000464:	00041880 	sll	v1,a0,0x2
10000468:	00041100 	sll	v0,a0,0x4
1000046c:	00621021 	addu	v0,v1,v0
10000470:	00442023 	subu	a0,v0,a0
10000474:	000410c0 	sll	v0,a0,0x3
10000478:	3c041001 	lui	a0,0x1001
1000047c:	248408bc 	addiu	a0,a0,2236
10000480:	00442021 	addu	a0,v0,a0
10000484:	03e00008 	jr	ra
10000488:	ac850060 	sw	a1,96(a0)

1000048c <_get_task_sp>:
1000048c:	3084ffff 	andi	a0,a0,0xffff
10000490:	00041880 	sll	v1,a0,0x2
10000494:	00041100 	sll	v0,a0,0x4
10000498:	00621021 	addu	v0,v1,v0
1000049c:	00442023 	subu	a0,v0,a0
100004a0:	000410c0 	sll	v0,a0,0x3
100004a4:	3c041001 	lui	a0,0x1001
100004a8:	248408bc 	addiu	a0,a0,2236
100004ac:	00442021 	addu	a0,v0,a0
100004b0:	8c820060 	lw	v0,96(a0)
100004b4:	03e00008 	jr	ra
100004b8:	00000000 	nop

100004bc <_set_task_tp>:
100004bc:	3084ffff 	andi	a0,a0,0xffff
100004c0:	00041880 	sll	v1,a0,0x2
100004c4:	00041100 	sll	v0,a0,0x4
100004c8:	00621021 	addu	v0,v1,v0
100004cc:	00442023 	subu	a0,v0,a0
100004d0:	000410c0 	sll	v0,a0,0x3
100004d4:	3c041001 	lui	a0,0x1001
100004d8:	248408bc 	addiu	a0,a0,2236
100004dc:	00442021 	addu	a0,v0,a0
100004e0:	03e00008 	jr	ra
100004e4:	ac850064 	sw	a1,100(a0)

100004e8 <_read_us>:
100004e8:	3c051001 	lui	a1,0x1001
100004ec:	8ca2080c 	lw	v0,2060(a1)
100004f0:	27bdffe8 	addiu	sp,sp,-24
100004f4:	3c032000 	lui	v1,0x2000
100004f8:	14400015 	bnez	v0,10000550 <_read_us+0x68>
100004fc:	afbf0014 	sw	ra,20(sp)
10000500:	8c620060 	lw	v0,96(v1)
10000504:	3c021001 	lui	v0,0x1001
10000508:	8c420808 	lw	v0,2056(v0)
1000050c:	8c630060 	lw	v1,96(v1)
10000510:	3c042000 	lui	a0,0x2000
10000514:	8c860060 	lw	a2,96(a0)
10000518:	3c031001 	lui	v1,0x1001
1000051c:	aca6080c 	sw	a2,2060(a1)
10000520:	8c880060 	lw	t0,96(a0)
10000524:	24070019 	li	a3,25
10000528:	00402025 	move	a0,v0
1000052c:	01002825 	move	a1,t0
10000530:	00003025 	move	a2,zero
10000534:	ac620800 	sw	v0,2048(v1)
10000538:	0c000546 	jal	10001518 <__udivdi3>
1000053c:	ac680804 	sw	t0,2052(v1)
10000540:	8fbf0014 	lw	ra,20(sp)
10000544:	00000000 	nop
10000548:	03e00008 	jr	ra
1000054c:	27bd0018 	addiu	sp,sp,24
10000550:	8c630060 	lw	v1,96(v1)
10000554:	00000000 	nop
10000558:	0062102b 	sltu	v0,v1,v0
1000055c:	10400006 	beqz	v0,10000578 <_read_us+0x90>
10000560:	3c031001 	lui	v1,0x1001
10000564:	8c620808 	lw	v0,2056(v1)
10000568:	00000000 	nop
1000056c:	24420001 	addiu	v0,v0,1
10000570:	08000144 	j	10000510 <_read_us+0x28>
10000574:	ac620808 	sw	v0,2056(v1)
10000578:	3c021001 	lui	v0,0x1001
1000057c:	8c420808 	lw	v0,2056(v0)
10000580:	08000145 	j	10000514 <_read_us+0x2c>
10000584:	3c042000 	lui	a0,0x2000

10000588 <_timer_reset>:
10000588:	3c032000 	lui	v1,0x2000
1000058c:	8c620010 	lw	v0,16(v1)
10000590:	27bdffe8 	addiu	sp,sp,-24
10000594:	3842000c 	xori	v0,v0,0xc
10000598:	afbf0014 	sw	ra,20(sp)
1000059c:	ac620010 	sw	v0,16(v1)
100005a0:	0c00013a 	jal	100004e8 <_read_us>
100005a4:	00000000 	nop
100005a8:	3c041001 	lui	a0,0x1001
100005ac:	8c820810 	lw	v0,2064(a0)
100005b0:	3c051001 	lui	a1,0x1001
100005b4:	8fbf0014 	lw	ra,20(sp)
100005b8:	00621023 	subu	v0,v1,v0
100005bc:	aca30814 	sw	v1,2068(a1)
100005c0:	3c051009 	lui	a1,0x1009
100005c4:	aca2bbc0 	sw	v0,-17472(a1)
100005c8:	ac830810 	sw	v1,2064(a0)
100005cc:	03e00008 	jr	ra
100005d0:	27bd0018 	addiu	sp,sp,24

100005d4 <_panic>:
100005d4:	3c02e000 	lui	v0,0xe000
100005d8:	ac400000 	sw	zero,0(v0)
100005dc:	03e00008 	jr	ra
100005e0:	00000000 	nop

100005e4 <_irq_register>:
100005e4:	3c061001 	lui	a2,0x1001
100005e8:	24c60818 	addiu	a2,a2,2072
100005ec:	00001025 	move	v0,zero
100005f0:	24080001 	li	t0,1
100005f4:	24070020 	li	a3,32
100005f8:	00481804 	sllv	v1,t0,v0
100005fc:	00641824 	and	v1,v1,a0
10000600:	10600002 	beqz	v1,1000060c <_irq_register+0x28>
10000604:	24420001 	addiu	v0,v0,1
10000608:	acc50000 	sw	a1,0(a2)
1000060c:	1447fffa 	bne	v0,a3,100005f8 <_irq_register+0x14>
10000610:	24c60004 	addiu	a2,a2,4
10000614:	03e00008 	jr	ra
10000618:	00000000 	nop

1000061c <_irq_handler>:
1000061c:	3c021009 	lui	v0,0x1009
10000620:	2442bbac 	addiu	v0,v0,-17492
10000624:	8c430010 	lw	v1,16(v0)
10000628:	27bdffe0 	addiu	sp,sp,-32
1000062c:	24630001 	addiu	v1,v1,1
10000630:	afb10014 	sw	s1,20(sp)
10000634:	3c111001 	lui	s1,0x1001
10000638:	afb20018 	sw	s2,24(sp)
1000063c:	afb00010 	sw	s0,16(sp)
10000640:	afbf001c 	sw	ra,28(sp)
10000644:	00808025 	move	s0,a0
10000648:	00a09025 	move	s2,a1
1000064c:	ac430010 	sw	v1,16(v0)
10000650:	26310818 	addiu	s1,s1,2072
10000654:	32020001 	andi	v0,s0,0x1
10000658:	10400007 	beqz	v0,10000678 <_irq_handler+0x5c>
1000065c:	00108042 	srl	s0,s0,0x1
10000660:	8e220000 	lw	v0,0(s1)
10000664:	00000000 	nop
10000668:	10400003 	beqz	v0,10000678 <_irq_handler+0x5c>
1000066c:	02402025 	move	a0,s2
10000670:	0040f809 	jalr	v0
10000674:	00000000 	nop
10000678:	1600fff6 	bnez	s0,10000654 <_irq_handler+0x38>
1000067c:	26310004 	addiu	s1,s1,4
10000680:	8fbf001c 	lw	ra,28(sp)
10000684:	8fb20018 	lw	s2,24(sp)
10000688:	8fb10014 	lw	s1,20(sp)
1000068c:	8fb00010 	lw	s0,16(sp)
10000690:	03e00008 	jr	ra
10000694:	27bd0020 	addiu	sp,sp,32

10000698 <_irq_mask_set>:
10000698:	27bdffe8 	addiu	sp,sp,-24
1000069c:	afb00010 	sw	s0,16(sp)
100006a0:	00808025 	move	s0,a0
100006a4:	afbf0014 	sw	ra,20(sp)
100006a8:	0c00007b 	jal	100001ec <_interrupt_set>
100006ac:	00002025 	move	a0,zero
100006b0:	3c032000 	lui	v1,0x2000
100006b4:	8c650010 	lw	a1,16(v1)
100006b8:	8fbf0014 	lw	ra,20(sp)
100006bc:	02058025 	or	s0,s0,a1
100006c0:	ac700010 	sw	s0,16(v1)
100006c4:	8fb00010 	lw	s0,16(sp)
100006c8:	00402025 	move	a0,v0
100006cc:	0800007b 	j	100001ec <_interrupt_set>
100006d0:	27bd0018 	addiu	sp,sp,24

100006d4 <kitoa.part.0>:
100006d4:	24020010 	li	v0,16
100006d8:	10a20024 	beq	a1,v0,1000076c <kitoa.part.0+0x98>
100006dc:	00000000 	nop
100006e0:	04800034 	bltz	a0,100007b4 <kitoa.part.0+0xe0>
100006e4:	00000000 	nop
100006e8:	1080003a 	beqz	a0,100007d4 <kitoa.part.0+0x100>
100006ec:	00004025 	move	t0,zero
100006f0:	3c071000 	lui	a3,0x1000
100006f4:	3c061001 	lui	a2,0x1001
100006f8:	24c608b6 	addiu	a2,a2,2230
100006fc:	2403001e 	li	v1,30
10000700:	080001c4 	j	10000710 <kitoa.part.0+0x3c>
10000704:	24e72d3c 	addiu	a3,a3,11580
10000708:	1060000a 	beqz	v1,10000734 <kitoa.part.0+0x60>
1000070c:	00000000 	nop
10000710:	0085001a 	div	zero,a0,a1
10000714:	24c6ffff 	addiu	a2,a2,-1
10000718:	2463ffff 	addiu	v1,v1,-1
1000071c:	00001010 	mfhi	v0
10000720:	00e21021 	addu	v0,a3,v0
10000724:	90420000 	lbu	v0,0(v0)
10000728:	00002012 	mflo	a0
1000072c:	1480fff6 	bnez	a0,10000708 <kitoa.part.0+0x34>
10000730:	a0c20001 	sb	v0,1(a2)
10000734:	15000006 	bnez	t0,10000750 <kitoa.part.0+0x7c>
10000738:	00000000 	nop
1000073c:	3c021001 	lui	v0,0x1001
10000740:	24630001 	addiu	v1,v1,1
10000744:	24420898 	addiu	v0,v0,2200
10000748:	03e00008 	jr	ra
1000074c:	00431021 	addu	v0,v0,v1
10000750:	3c021001 	lui	v0,0x1001
10000754:	24420898 	addiu	v0,v0,2200
10000758:	00432021 	addu	a0,v0,v1
1000075c:	2405002d 	li	a1,45
10000760:	a0850000 	sb	a1,0(a0)
10000764:	03e00008 	jr	ra
10000768:	00431021 	addu	v0,v0,v1
1000076c:	10800019 	beqz	a0,100007d4 <kitoa.part.0+0x100>
10000770:	3c071000 	lui	a3,0x1000
10000774:	3c051001 	lui	a1,0x1001
10000778:	24a508b6 	addiu	a1,a1,2230
1000077c:	2403001e 	li	v1,30
10000780:	080001e4 	j	10000790 <kitoa.part.0+0xbc>
10000784:	24e72d3c 	addiu	a3,a3,11580
10000788:	1060000d 	beqz	v1,100007c0 <kitoa.part.0+0xec>
1000078c:	24a5ffff 	addiu	a1,a1,-1
10000790:	3082000f 	andi	v0,a0,0xf
10000794:	00e21021 	addu	v0,a3,v0
10000798:	90420000 	lbu	v0,0(v0)
1000079c:	00042102 	srl	a0,a0,0x4
100007a0:	a0a20000 	sb	v0,0(a1)
100007a4:	1480fff8 	bnez	a0,10000788 <kitoa.part.0+0xb4>
100007a8:	2463ffff 	addiu	v1,v1,-1
100007ac:	080001d0 	j	10000740 <kitoa.part.0+0x6c>
100007b0:	3c021001 	lui	v0,0x1001
100007b4:	00042023 	negu	a0,a0
100007b8:	080001bc 	j	100006f0 <kitoa.part.0+0x1c>
100007bc:	24080001 	li	t0,1
100007c0:	3c021001 	lui	v0,0x1001
100007c4:	24030001 	li	v1,1
100007c8:	24420898 	addiu	v0,v0,2200
100007cc:	03e00008 	jr	ra
100007d0:	00431021 	addu	v0,v0,v1
100007d4:	3c021001 	lui	v0,0x1001
100007d8:	2403001f 	li	v1,31
100007dc:	080001d2 	j	10000748 <kitoa.part.0+0x74>
100007e0:	24420898 	addiu	v0,v0,2200

100007e4 <kprintf>:
100007e4:	27bdffc0 	addiu	sp,sp,-64
100007e8:	afb70038 	sw	s7,56(sp)
100007ec:	27b70044 	addiu	s7,sp,68
100007f0:	afb60034 	sw	s6,52(sp)
100007f4:	afb50030 	sw	s5,48(sp)
100007f8:	afb4002c 	sw	s4,44(sp)
100007fc:	afb30028 	sw	s3,40(sp)
10000800:	afb20024 	sw	s2,36(sp)
10000804:	afb0001c 	sw	s0,28(sp)
10000808:	afbf003c 	sw	ra,60(sp)
1000080c:	afb10020 	sw	s1,32(sp)
10000810:	afa50044 	sw	a1,68(sp)
10000814:	afa60048 	sw	a2,72(sp)
10000818:	afa7004c 	sw	a3,76(sp)
1000081c:	00808025 	move	s0,a0
10000820:	afb70010 	sw	s7,16(sp)
10000824:	24120025 	li	s2,37
10000828:	24130064 	li	s3,100
1000082c:	3c151000 	lui	s5,0x1000
10000830:	24140073 	li	s4,115
10000834:	3c161000 	lui	s6,0x1000
10000838:	82040000 	lb	a0,0(s0)
1000083c:	00000000 	nop
10000840:	10800009 	beqz	a0,10000868 <kprintf+0x84>
10000844:	00000000 	nop
10000848:	10920013 	beq	a0,s2,10000898 <kprintf+0xb4>
1000084c:	00000000 	nop
10000850:	0c0000af 	jal	100002bc <putchar>
10000854:	26100001 	addiu	s0,s0,1
10000858:	82040000 	lb	a0,0(s0)
1000085c:	00000000 	nop
10000860:	1480fff9 	bnez	a0,10000848 <kprintf+0x64>
10000864:	00000000 	nop
10000868:	8fbf003c 	lw	ra,60(sp)
1000086c:	8fb70038 	lw	s7,56(sp)
10000870:	8fb60034 	lw	s6,52(sp)
10000874:	8fb50030 	lw	s5,48(sp)
10000878:	8fb4002c 	lw	s4,44(sp)
1000087c:	8fb30028 	lw	s3,40(sp)
10000880:	8fb20024 	lw	s2,36(sp)
10000884:	8fb10020 	lw	s1,32(sp)
10000888:	8fb0001c 	lw	s0,28(sp)
1000088c:	00001025 	move	v0,zero
10000890:	03e00008 	jr	ra
10000894:	27bd0040 	addiu	sp,sp,64
10000898:	82020001 	lb	v0,1(s0)
1000089c:	00000000 	nop
100008a0:	10530021 	beq	v0,s3,10000928 <kprintf+0x144>
100008a4:	28430065 	slti	v1,v0,101
100008a8:	1060000a 	beqz	v1,100008d4 <kprintf+0xf0>
100008ac:	00000000 	nop
100008b0:	10520042 	beq	v0,s2,100009bc <kprintf+0x1d8>
100008b4:	24030063 	li	v1,99
100008b8:	1443003c 	bne	v0,v1,100009ac <kprintf+0x1c8>
100008bc:	00000000 	nop
100008c0:	82e40003 	lb	a0,3(s7)
100008c4:	0c0000af 	jal	100002bc <putchar>
100008c8:	26f70004 	addiu	s7,s7,4
100008cc:	0800020e 	j	10000838 <kprintf+0x54>
100008d0:	26100002 	addiu	s0,s0,2
100008d4:	10540025 	beq	v0,s4,1000096c <kprintf+0x188>
100008d8:	24030078 	li	v1,120
100008dc:	14430033 	bne	v0,v1,100009ac <kprintf+0x1c8>
100008e0:	00000000 	nop
100008e4:	8ee40000 	lw	a0,0(s7)
100008e8:	00000000 	nop
100008ec:	14800037 	bnez	a0,100009cc <kprintf+0x1e8>
100008f0:	26f70004 	addiu	s7,s7,4
100008f4:	26a22d50 	addiu	v0,s5,11600
100008f8:	80440000 	lb	a0,0(v0)
100008fc:	00000000 	nop
10000900:	1080fff2 	beqz	a0,100008cc <kprintf+0xe8>
10000904:	24510001 	addiu	s1,v0,1
10000908:	0c0000af 	jal	100002bc <putchar>
1000090c:	26310001 	addiu	s1,s1,1
10000910:	8224ffff 	lb	a0,-1(s1)
10000914:	00000000 	nop
10000918:	1480fffb 	bnez	a0,10000908 <kprintf+0x124>
1000091c:	00000000 	nop
10000920:	0800020e 	j	10000838 <kprintf+0x54>
10000924:	26100002 	addiu	s0,s0,2
10000928:	8ee40000 	lw	a0,0(s7)
1000092c:	00000000 	nop
10000930:	1480002a 	bnez	a0,100009dc <kprintf+0x1f8>
10000934:	26f70004 	addiu	s7,s7,4
10000938:	26a22d50 	addiu	v0,s5,11600
1000093c:	80440000 	lb	a0,0(v0)
10000940:	00000000 	nop
10000944:	1080ffe1 	beqz	a0,100008cc <kprintf+0xe8>
10000948:	24510001 	addiu	s1,v0,1
1000094c:	0c0000af 	jal	100002bc <putchar>
10000950:	26310001 	addiu	s1,s1,1
10000954:	8224ffff 	lb	a0,-1(s1)
10000958:	00000000 	nop
1000095c:	1480fffb 	bnez	a0,1000094c <kprintf+0x168>
10000960:	00000000 	nop
10000964:	0800020e 	j	10000838 <kprintf+0x54>
10000968:	26100002 	addiu	s0,s0,2
1000096c:	8ef10000 	lw	s1,0(s7)
10000970:	00000000 	nop
10000974:	1220001d 	beqz	s1,100009ec <kprintf+0x208>
10000978:	26f70004 	addiu	s7,s7,4
1000097c:	82240000 	lb	a0,0(s1)
10000980:	00000000 	nop
10000984:	1080ffd1 	beqz	a0,100008cc <kprintf+0xe8>
10000988:	00000000 	nop
1000098c:	0c0000af 	jal	100002bc <putchar>
10000990:	26310001 	addiu	s1,s1,1
10000994:	82240000 	lb	a0,0(s1)
10000998:	00000000 	nop
1000099c:	1480fffb 	bnez	a0,1000098c <kprintf+0x1a8>
100009a0:	00000000 	nop
100009a4:	0800020e 	j	10000838 <kprintf+0x54>
100009a8:	26100002 	addiu	s0,s0,2
100009ac:	0c0000af 	jal	100002bc <putchar>
100009b0:	2404003f 	li	a0,63
100009b4:	0800020e 	j	10000838 <kprintf+0x54>
100009b8:	26100002 	addiu	s0,s0,2
100009bc:	0c0000af 	jal	100002bc <putchar>
100009c0:	24040025 	li	a0,37
100009c4:	0800020e 	j	10000838 <kprintf+0x54>
100009c8:	26100002 	addiu	s0,s0,2
100009cc:	0c0001b5 	jal	100006d4 <kitoa.part.0>
100009d0:	24050010 	li	a1,16
100009d4:	0800023e 	j	100008f8 <kprintf+0x114>
100009d8:	00000000 	nop
100009dc:	0c0001b5 	jal	100006d4 <kitoa.part.0>
100009e0:	2405000a 	li	a1,10
100009e4:	0800024f 	j	1000093c <kprintf+0x158>
100009e8:	00000000 	nop
100009ec:	0800025f 	j	1000097c <kprintf+0x198>
100009f0:	26d12d54 	addiu	s1,s6,11604

100009f4 <mark>:
100009f4:	27bdfff0 	addiu	sp,sp,-16
100009f8:	8fa60020 	lw	a2,32(sp)
100009fc:	afb10004 	sw	s1,4(sp)
10000a00:	00e60018 	mult	a3,a2
10000a04:	afb3000c 	sw	s3,12(sp)
10000a08:	afb20008 	sw	s2,8(sp)
10000a0c:	00008812 	mflo	s1
10000a10:	1a20004a 	blez	s1,10000b3c <mark+0x148>
10000a14:	afb00000 	sw	s0,0(sp)
10000a18:	00068023 	negu	s0,a2
10000a1c:	00809025 	move	s2,a0
10000a20:	26310002 	addiu	s1,s1,2
10000a24:	00108080 	sll	s0,s0,0x2
10000a28:	00062080 	sll	a0,a2,0x2
10000a2c:	240a0002 	li	t2,2
10000a30:	18e0003f 	blez	a3,10000b30 <mark+0x13c>
10000a34:	2548ffff 	addiu	t0,t2,-1
10000a38:	0240c025 	move	t8,s2
10000a3c:	02007025 	move	t6,s0
10000a40:	00806825 	move	t5,a0
10000a44:	00004825 	move	t1,zero
10000a48:	240b0001 	li	t3,1
10000a4c:	18c00031 	blez	a2,10000b14 <mark+0x120>
10000a50:	01607825 	move	t7,t3
10000a54:	8f050000 	lw	a1,0(t8)
10000a58:	03001025 	move	v0,t8
10000a5c:	24030001 	li	v1,1
10000a60:	240c0001 	li	t4,1
10000a64:	11050009 	beq	t0,a1,10000a8c <mark+0x98>
10000a68:	0167c82a 	slt	t9,t3,a3
10000a6c:	0066282a 	slt	a1,v1,a2
10000a70:	10a00028 	beqz	a1,10000b14 <mark+0x120>
10000a74:	00000000 	nop
10000a78:	8c450004 	lw	a1,4(v0)
10000a7c:	24630001 	addiu	v1,v1,1
10000a80:	24420004 	addiu	v0,v0,4
10000a84:	1505fffa 	bne	t0,a1,10000a70 <mark+0x7c>
10000a88:	0066282a 	slt	a1,v1,a2
10000a8c:	116c0007 	beq	t3,t4,10000aac <mark+0xb8>
10000a90:	00492821 	addu	a1,v0,t1
10000a94:	00ae2821 	addu	a1,a1,t6
10000a98:	8cb30000 	lw	s3,0(a1)
10000a9c:	00000000 	nop
10000aa0:	16600002 	bnez	s3,10000aac <mark+0xb8>
10000aa4:	00000000 	nop
10000aa8:	acaa0000 	sw	t2,0(a1)
10000aac:	13200007 	beqz	t9,10000acc <mark+0xd8>
10000ab0:	00492821 	addu	a1,v0,t1
10000ab4:	00ad2821 	addu	a1,a1,t5
10000ab8:	8cb30000 	lw	s3,0(a1)
10000abc:	00000000 	nop
10000ac0:	16600002 	bnez	s3,10000acc <mark+0xd8>
10000ac4:	00000000 	nop
10000ac8:	acaa0000 	sw	t2,0(a1)
10000acc:	106c0006 	beq	v1,t4,10000ae8 <mark+0xf4>
10000ad0:	0066282a 	slt	a1,v1,a2
10000ad4:	8c45fffc 	lw	a1,-4(v0)
10000ad8:	00000000 	nop
10000adc:	14a00002 	bnez	a1,10000ae8 <mark+0xf4>
10000ae0:	0066282a 	slt	a1,v1,a2
10000ae4:	ac4afffc 	sw	t2,-4(v0)
10000ae8:	10a0000a 	beqz	a1,10000b14 <mark+0x120>
10000aec:	00000000 	nop
10000af0:	8c450004 	lw	a1,4(v0)
10000af4:	00000000 	nop
10000af8:	14a0ffe0 	bnez	a1,10000a7c <mark+0x88>
10000afc:	00000000 	nop
10000b00:	ac4a0004 	sw	t2,4(v0)
10000b04:	01402825 	move	a1,t2
10000b08:	24630001 	addiu	v1,v1,1
10000b0c:	080002a1 	j	10000a84 <mark+0x90>
10000b10:	24420004 	addiu	v0,v0,4
10000b14:	01e7782a 	slt	t7,t7,a3
10000b18:	256b0001 	addiu	t3,t3,1
10000b1c:	01304821 	addu	t1,t1,s0
10000b20:	01a46821 	addu	t5,t5,a0
10000b24:	01c47021 	addu	t6,t6,a0
10000b28:	15e0ffc8 	bnez	t7,10000a4c <mark+0x58>
10000b2c:	0304c021 	addu	t8,t8,a0
10000b30:	254a0001 	addiu	t2,t2,1
10000b34:	1551ffbe 	bne	t2,s1,10000a30 <mark+0x3c>
10000b38:	00000000 	nop
10000b3c:	8fb3000c 	lw	s3,12(sp)
10000b40:	8fb20008 	lw	s2,8(sp)
10000b44:	8fb10004 	lw	s1,4(sp)
10000b48:	8fb00000 	lw	s0,0(sp)
10000b4c:	03e00008 	jr	ra
10000b50:	27bd0010 	addiu	sp,sp,16

10000b54 <search>:
10000b54:	27bdffc8 	addiu	sp,sp,-56
10000b58:	afb00010 	sw	s0,16(sp)
10000b5c:	3c101000 	lui	s0,0x1000
10000b60:	afbe0030 	sw	s8,48(sp)
10000b64:	afb7002c 	sw	s7,44(sp)
10000b68:	afb60028 	sw	s6,40(sp)
10000b6c:	afb50024 	sw	s5,36(sp)
10000b70:	afb20018 	sw	s2,24(sp)
10000b74:	afb10014 	sw	s1,20(sp)
10000b78:	afbf0034 	sw	ra,52(sp)
10000b7c:	afb40020 	sw	s4,32(sp)
10000b80:	afb3001c 	sw	s3,28(sp)
10000b84:	8fb1004c 	lw	s1,76(sp)
10000b88:	8fbe0050 	lw	s8,80(sp)
10000b8c:	0080b825 	move	s7,a0
10000b90:	00a0a825 	move	s5,a1
10000b94:	00c0b025 	move	s6,a2
10000b98:	00e09025 	move	s2,a3
10000b9c:	080002ef 	j	10000bbc <search+0x68>
10000ba0:	26102d64 	addiu	s0,s0,11620
10000ba4:	1840001a 	blez	v0,10000c10 <search+0xbc>
10000ba8:	26a30001 	addiu	v1,s5,1
10000bac:	0080a825 	move	s5,a0
10000bb0:	2a730002 	slti	s3,s3,2
10000bb4:	16600026 	bnez	s3,10000c50 <search+0xfc>
10000bb8:	00000000 	nop
10000bbc:	02be0018 	mult	s5,s8
10000bc0:	02002025 	move	a0,s0
10000bc4:	02a02825 	move	a1,s5
10000bc8:	0000a012 	mflo	s4
10000bcc:	02961021 	addu	v0,s4,s6
10000bd0:	00021080 	sll	v0,v0,0x2
10000bd4:	02e21021 	addu	v0,s7,v0
10000bd8:	8c530000 	lw	s3,0(v0)
10000bdc:	0c000536 	jal	100014d8 <printf>
10000be0:	02c03025 	move	a2,s6
10000be4:	1aa00009 	blez	s5,10000c0c <search+0xb8>
10000be8:	029e1023 	subu	v0,s4,s8
10000bec:	00561021 	addu	v0,v0,s6
10000bf0:	00021080 	sll	v0,v0,0x2
10000bf4:	02e21021 	addu	v0,s7,v0
10000bf8:	8c420000 	lw	v0,0(v0)
10000bfc:	00000000 	nop
10000c00:	0053182a 	slt	v1,v0,s3
10000c04:	1460ffe7 	bnez	v1,10000ba4 <search+0x50>
10000c08:	26a4ffff 	addiu	a0,s5,-1
10000c0c:	26a30001 	addiu	v1,s5,1
10000c10:	0071102a 	slt	v0,v1,s1
10000c14:	1040001d 	beqz	v0,10000c8c <search+0x138>
10000c18:	029e1021 	addu	v0,s4,s8
10000c1c:	00561021 	addu	v0,v0,s6
10000c20:	00021080 	sll	v0,v0,0x2
10000c24:	02e21021 	addu	v0,s7,v0
10000c28:	8c420000 	lw	v0,0(v0)
10000c2c:	00000000 	nop
10000c30:	0053202a 	slt	a0,v0,s3
10000c34:	10800015 	beqz	a0,10000c8c <search+0x138>
10000c38:	00000000 	nop
10000c3c:	18400013 	blez	v0,10000c8c <search+0x138>
10000c40:	00000000 	nop
10000c44:	2a730002 	slti	s3,s3,2
10000c48:	1260ffdc 	beqz	s3,10000bbc <search+0x68>
10000c4c:	0060a825 	move	s5,v1
10000c50:	1255002c 	beq	s2,s5,10000d04 <search+0x1b0>
10000c54:	00000000 	nop
10000c58:	00001025 	move	v0,zero
10000c5c:	8fbf0034 	lw	ra,52(sp)
10000c60:	8fbe0030 	lw	s8,48(sp)
10000c64:	8fb7002c 	lw	s7,44(sp)
10000c68:	8fb60028 	lw	s6,40(sp)
10000c6c:	8fb50024 	lw	s5,36(sp)
10000c70:	8fb40020 	lw	s4,32(sp)
10000c74:	8fb3001c 	lw	s3,28(sp)
10000c78:	8fb20018 	lw	s2,24(sp)
10000c7c:	8fb10014 	lw	s1,20(sp)
10000c80:	8fb00010 	lw	s0,16(sp)
10000c84:	03e00008 	jr	ra
10000c88:	27bd0038 	addiu	sp,sp,56
10000c8c:	1ac0000d 	blez	s6,10000cc4 <search+0x170>
10000c90:	26c3ffff 	addiu	v1,s6,-1
10000c94:	02831021 	addu	v0,s4,v1
10000c98:	00021080 	sll	v0,v0,0x2
10000c9c:	02e21021 	addu	v0,s7,v0
10000ca0:	8c420000 	lw	v0,0(v0)
10000ca4:	00000000 	nop
10000ca8:	0053202a 	slt	a0,v0,s3
10000cac:	10800005 	beqz	a0,10000cc4 <search+0x170>
10000cb0:	00000000 	nop
10000cb4:	18400004 	blez	v0,10000cc8 <search+0x174>
10000cb8:	26c20001 	addiu	v0,s6,1
10000cbc:	080002ec 	j	10000bb0 <search+0x5c>
10000cc0:	0060b025 	move	s6,v1
10000cc4:	26c20001 	addiu	v0,s6,1
10000cc8:	005e182a 	slt	v1,v0,s8
10000ccc:	1060ffb8 	beqz	v1,10000bb0 <search+0x5c>
10000cd0:	00000000 	nop
10000cd4:	0282a021 	addu	s4,s4,v0
10000cd8:	0014a080 	sll	s4,s4,0x2
10000cdc:	02f4a021 	addu	s4,s7,s4
10000ce0:	8e830000 	lw	v1,0(s4)
10000ce4:	00000000 	nop
10000ce8:	0073202a 	slt	a0,v1,s3
10000cec:	1080ffb0 	beqz	a0,10000bb0 <search+0x5c>
10000cf0:	00000000 	nop
10000cf4:	1860ffae 	blez	v1,10000bb0 <search+0x5c>
10000cf8:	00000000 	nop
10000cfc:	080002ec 	j	10000bb0 <search+0x5c>
10000d00:	0040b025 	move	s6,v0
10000d04:	8fa20048 	lw	v0,72(sp)
10000d08:	00000000 	nop
10000d0c:	00561026 	xor	v0,v0,s6
10000d10:	08000317 	j	10000c5c <search+0x108>
10000d14:	2c420001 	sltiu	v0,v0,1

10000d18 <solve>:
10000d18:	27bdffc8 	addiu	sp,sp,-56
10000d1c:	afb00018 	sw	s0,24(sp)
10000d20:	8fb0004c 	lw	s0,76(sp)
10000d24:	afb20020 	sw	s2,32(sp)
10000d28:	02060018 	mult	s0,a2
10000d2c:	8fb20050 	lw	s2,80(sp)
10000d30:	afb5002c 	sw	s5,44(sp)
10000d34:	afb40028 	sw	s4,40(sp)
10000d38:	afb1001c 	sw	s1,28(sp)
10000d3c:	00a0a025 	move	s4,a1
10000d40:	00c08825 	move	s1,a2
10000d44:	8fb50048 	lw	s5,72(sp)
10000d48:	24030001 	li	v1,1
10000d4c:	afbf0034 	sw	ra,52(sp)
10000d50:	afb60030 	sw	s6,48(sp)
10000d54:	afb30024 	sw	s3,36(sp)
10000d58:	00001012 	mflo	v0
10000d5c:	00521021 	addu	v0,v0,s2
10000d60:	00021080 	sll	v0,v0,0x2
10000d64:	00821021 	addu	v0,a0,v0
10000d68:	afb10010 	sw	s1,16(sp)
10000d6c:	00809825 	move	s3,a0
10000d70:	00e0b025 	move	s6,a3
10000d74:	02002825 	move	a1,s0
10000d78:	02403025 	move	a2,s2
10000d7c:	02803825 	move	a3,s4
10000d80:	0c00027d 	jal	100009f4 <mark>
10000d84:	ac430000 	sw	v1,0(v0)
10000d88:	afb20048 	sw	s2,72(sp)
10000d8c:	afb4004c 	sw	s4,76(sp)
10000d90:	afb10050 	sw	s1,80(sp)
10000d94:	8fbf0034 	lw	ra,52(sp)
10000d98:	8fb40028 	lw	s4,40(sp)
10000d9c:	8fb20020 	lw	s2,32(sp)
10000da0:	8fb1001c 	lw	s1,28(sp)
10000da4:	02602025 	move	a0,s3
10000da8:	02c02825 	move	a1,s6
10000dac:	8fb30024 	lw	s3,36(sp)
10000db0:	8fb60030 	lw	s6,48(sp)
10000db4:	02a03025 	move	a2,s5
10000db8:	02003825 	move	a3,s0
10000dbc:	8fb5002c 	lw	s5,44(sp)
10000dc0:	8fb00018 	lw	s0,24(sp)
10000dc4:	080002d5 	j	10000b54 <search>
10000dc8:	27bd0038 	addiu	sp,sp,56

10000dcc <app_main>:
10000dcc:	27bdffc0 	addiu	sp,sp,-64
10000dd0:	afb60038 	sw	s6,56(sp)
10000dd4:	afb50034 	sw	s5,52(sp)
10000dd8:	afb40030 	sw	s4,48(sp)
10000ddc:	afb3002c 	sw	s3,44(sp)
10000de0:	afb20028 	sw	s2,40(sp)
10000de4:	afb10024 	sw	s1,36(sp)
10000de8:	afb00020 	sw	s0,32(sp)
10000dec:	afbf003c 	sw	ra,60(sp)
10000df0:	0c00013a 	jal	100004e8 <_read_us>
10000df4:	3c111000 	lui	s1,0x1000
10000df8:	3c141000 	lui	s4,0x1000
10000dfc:	3c131000 	lui	s3,0x1000
10000e00:	0060a825 	move	s5,v1
10000e04:	26313590 	addiu	s1,s1,13712
10000e08:	0000b025 	move	s6,zero
10000e0c:	00008025 	move	s0,zero
10000e10:	26942d78 	addiu	s4,s4,11640
10000e14:	26732d70 	addiu	s3,s3,11632
10000e18:	0800038b 	j	10000e2c <app_main+0x60>
10000e1c:	2412000f 	li	s2,15
10000e20:	26100001 	addiu	s0,s0,1
10000e24:	12120017 	beq	s0,s2,10000e84 <app_main+0xb8>
10000e28:	2631001c 	addiu	s1,s1,28
10000e2c:	0c000795 	jal	10001e54 <hf_cpuid>
10000e30:	00000000 	nop
10000e34:	1602fffa 	bne	s0,v0,10000e20 <app_main+0x54>
10000e38:	00000000 	nop
10000e3c:	8e23fff4 	lw	v1,-12(s1)
10000e40:	8e28fff8 	lw	t0,-8(s1)
10000e44:	8e22fffc 	lw	v0,-4(s1)
10000e48:	8e240000 	lw	a0,0(s1)
10000e4c:	8e25ffe8 	lw	a1,-24(s1)
10000e50:	8e26ffec 	lw	a2,-20(s1)
10000e54:	8e27fff0 	lw	a3,-16(s1)
10000e58:	afa30010 	sw	v1,16(sp)
10000e5c:	afa80014 	sw	t0,20(sp)
10000e60:	0c000346 	jal	10000d18 <solve>
10000e64:	afa20018 	sw	v0,24(sp)
10000e68:	1040001c 	beqz	v0,10000edc <app_main+0x110>
10000e6c:	02602025 	move	a0,s3
10000e70:	0c000536 	jal	100014d8 <printf>
10000e74:	26100001 	addiu	s0,s0,1
10000e78:	26d60001 	addiu	s6,s6,1
10000e7c:	1612ffeb 	bne	s0,s2,10000e2c <app_main+0x60>
10000e80:	2631001c 	addiu	s1,s1,28
10000e84:	3c041000 	lui	a0,0x1000
10000e88:	02c02825 	move	a1,s6
10000e8c:	24842d84 	addiu	a0,a0,11652
10000e90:	0c000536 	jal	100014d8 <printf>
10000e94:	2406000f 	li	a2,15
10000e98:	0c00013a 	jal	100004e8 <_read_us>
10000e9c:	00000000 	nop
10000ea0:	3c041000 	lui	a0,0x1000
10000ea4:	24842da0 	addiu	a0,a0,11680
10000ea8:	0c000536 	jal	100014d8 <printf>
10000eac:	00752823 	subu	a1,v1,s5
10000eb0:	8fbf003c 	lw	ra,60(sp)
10000eb4:	8fb60038 	lw	s6,56(sp)
10000eb8:	8fb50034 	lw	s5,52(sp)
10000ebc:	8fb40030 	lw	s4,48(sp)
10000ec0:	8fb3002c 	lw	s3,44(sp)
10000ec4:	8fb20028 	lw	s2,40(sp)
10000ec8:	8fb10024 	lw	s1,36(sp)
10000ecc:	8fb00020 	lw	s0,32(sp)
10000ed0:	00002025 	move	a0,zero
10000ed4:	08000797 	j	10001e5c <panic>
10000ed8:	27bd0040 	addiu	sp,sp,64
10000edc:	0c000536 	jal	100014d8 <printf>
10000ee0:	02802025 	move	a0,s4
10000ee4:	08000389 	j	10000e24 <app_main+0x58>
10000ee8:	26100001 	addiu	s0,s0,1

10000eec <printchar.part.0>:
10000eec:	14800003 	bnez	a0,10000efc <printchar.part.0+0x10>
10000ef0:	00000000 	nop
10000ef4:	03e00008 	jr	ra
10000ef8:	00000000 	nop
10000efc:	080000af 	j	100002bc <putchar>
10000f00:	00000000 	nop

10000f04 <__udivmoddi4.part.1>:
10000f04:	27bdfff8 	addiu	sp,sp,-8
10000f08:	00004025 	move	t0,zero
10000f0c:	afb10004 	sw	s1,4(sp)
10000f10:	afb00000 	sw	s0,0(sp)
10000f14:	8fb80018 	lw	t8,24(sp)
10000f18:	04c0000d 	bltz	a2,10000f50 <__udivmoddi4.part.1+0x4c>
10000f1c:	24020001 	li	v0,1
10000f20:	00074fc2 	srl	t1,a3,0x1f
10000f24:	00063040 	sll	a2,a2,0x1
10000f28:	00021fc2 	srl	v1,v0,0x1f
10000f2c:	00084040 	sll	t0,t0,0x1
10000f30:	01263025 	or	a2,t1,a2
10000f34:	00073840 	sll	a3,a3,0x1
10000f38:	00684025 	or	t0,v1,t0
10000f3c:	04c1fff8 	bgez	a2,10000f20 <__udivmoddi4.part.1+0x1c>
10000f40:	00021040 	sll	v0,v0,0x1
10000f44:	01021825 	or	v1,t0,v0
10000f48:	10600026 	beqz	v1,10000fe4 <__udivmoddi4.part.1+0xe0>
10000f4c:	00007825 	move	t7,zero
10000f50:	00007825 	move	t7,zero
10000f54:	00001825 	move	v1,zero
10000f58:	0086482b 	sltu	t1,a0,a2
10000f5c:	00086fc0 	sll	t5,t0,0x1f
10000f60:	00026042 	srl	t4,v0,0x1
10000f64:	00065fc0 	sll	t3,a2,0x1f
10000f68:	1520000f 	bnez	t1,10000fa8 <__udivmoddi4.part.1+0xa4>
10000f6c:	00075042 	srl	t2,a3,0x1
10000f70:	00a77023 	subu	t6,a1,a3
10000f74:	00624821 	addu	t1,v1,v0
10000f78:	00ae802b 	sltu	s0,a1,t6
10000f7c:	00868823 	subu	s1,a0,a2
10000f80:	0123c82b 	sltu	t9,t1,v1
10000f84:	01e81021 	addu	v0,t7,t0
10000f88:	14c40003 	bne	a2,a0,10000f98 <__udivmoddi4.part.1+0x94>
10000f8c:	00a7382b 	sltu	a3,a1,a3
10000f90:	14e00005 	bnez	a3,10000fa8 <__udivmoddi4.part.1+0xa4>
10000f94:	00000000 	nop
10000f98:	02302023 	subu	a0,s1,s0
10000f9c:	01c02825 	move	a1,t6
10000fa0:	03227821 	addu	t7,t9,v0
10000fa4:	01201825 	move	v1,t1
10000fa8:	00084042 	srl	t0,t0,0x1
10000fac:	01ac1025 	or	v0,t5,t4
10000fb0:	01024825 	or	t1,t0,v0
10000fb4:	00063042 	srl	a2,a2,0x1
10000fb8:	1520ffe7 	bnez	t1,10000f58 <__udivmoddi4.part.1+0x54>
10000fbc:	016a3825 	or	a3,t3,t2
10000fc0:	13000003 	beqz	t8,10000fd0 <__udivmoddi4.part.1+0xcc>
10000fc4:	00000000 	nop
10000fc8:	af040000 	sw	a0,0(t8)
10000fcc:	af050004 	sw	a1,4(t8)
10000fd0:	8fb10004 	lw	s1,4(sp)
10000fd4:	8fb00000 	lw	s0,0(sp)
10000fd8:	01e01025 	move	v0,t7
10000fdc:	03e00008 	jr	ra
10000fe0:	27bd0008 	addiu	sp,sp,8
10000fe4:	080003f0 	j	10000fc0 <__udivmoddi4.part.1+0xbc>
10000fe8:	00001825 	move	v1,zero

10000fec <vsprintf>:
10000fec:	27bdffb0 	addiu	sp,sp,-80
10000ff0:	afb00028 	sw	s0,40(sp)
10000ff4:	afbf004c 	sw	ra,76(sp)
10000ff8:	afbe0048 	sw	s8,72(sp)
10000ffc:	afb70044 	sw	s7,68(sp)
10001000:	afb60040 	sw	s6,64(sp)
10001004:	afb5003c 	sw	s5,60(sp)
10001008:	afb40038 	sw	s4,56(sp)
1000100c:	afb30034 	sw	s3,52(sp)
10001010:	afb20030 	sw	s2,48(sp)
10001014:	afb1002c 	sw	s1,44(sp)
10001018:	80a20000 	lb	v0,0(a1)
1000101c:	00000000 	nop
10001020:	1040006e 	beqz	v0,100011dc <vsprintf+0x1f0>
10001024:	00808025 	move	s0,a0
10001028:	3c131000 	lui	s3,0x1000
1000102c:	3c171000 	lui	s7,0x1000
10001030:	00c0f025 	move	s8,a2
10001034:	26732e14 	addiu	s3,s3,11796
10001038:	0800041d 	j	10001074 <vsprintf+0x88>
1000103c:	26f72d3c 	addiu	s7,s7,11580
10001040:	120000d5 	beqz	s0,10001398 <vsprintf+0x3ac>
10001044:	00402025 	move	a0,v0
10001048:	8e030000 	lw	v1,0(s0)
1000104c:	00a0b025 	move	s6,a1
10001050:	a0620000 	sb	v0,0(v1)
10001054:	8e020000 	lw	v0,0(s0)
10001058:	00000000 	nop
1000105c:	24420001 	addiu	v0,v0,1
10001060:	ae020000 	sw	v0,0(s0)
10001064:	82c20001 	lb	v0,1(s6)
10001068:	00000000 	nop
1000106c:	1040005b 	beqz	v0,100011dc <vsprintf+0x1f0>
10001070:	26c50001 	addiu	a1,s6,1
10001074:	24030025 	li	v1,37
10001078:	1443fff1 	bne	v0,v1,10001040 <vsprintf+0x54>
1000107c:	00000000 	nop
10001080:	80a30001 	lb	v1,1(a1)
10001084:	24020030 	li	v0,48
10001088:	10620071 	beq	v1,v0,10001250 <vsprintf+0x264>
1000108c:	2462ffd0 	addiu	v0,v1,-48
10001090:	304200ff 	andi	v0,v0,0xff
10001094:	2c42000a 	sltiu	v0,v0,10
10001098:	1440003c 	bnez	v0,1000118c <vsprintf+0x1a0>
1000109c:	24b60001 	addiu	s6,a1,1
100010a0:	00601025 	move	v0,v1
100010a4:	24140020 	li	s4,32
100010a8:	2411ffff 	li	s1,-1
100010ac:	2404006c 	li	a0,108
100010b0:	10640047 	beq	v1,a0,100011d0 <vsprintf+0x1e4>
100010b4:	00000000 	nop
100010b8:	2442ffa8 	addiu	v0,v0,-88
100010bc:	304200ff 	andi	v0,v0,0xff
100010c0:	2c430021 	sltiu	v1,v0,33
100010c4:	1060ffe7 	beqz	v1,10001064 <vsprintf+0x78>
100010c8:	00021080 	sll	v0,v0,0x2
100010cc:	02621021 	addu	v0,s3,v0
100010d0:	8c420000 	lw	v0,0(v0)
100010d4:	00000000 	nop
100010d8:	00400008 	jr	v0
100010dc:	00000000 	nop
100010e0:	2404000a 	li	a0,10
100010e4:	8fd50000 	lw	s5,0(s8)
100010e8:	27d20004 	addiu	s2,s8,4
100010ec:	16a00061 	bnez	s5,10001274 <vsprintf+0x288>
100010f0:	24020030 	li	v0,48
100010f4:	24030001 	li	v1,1
100010f8:	0240f025 	move	s8,s2
100010fc:	a3a20010 	sb	v0,16(sp)
10001100:	27b20010 	addiu	s2,sp,16
10001104:	02238823 	subu	s1,s1,v1
10001108:	1a20000c 	blez	s1,1000113c <vsprintf+0x150>
1000110c:	00000000 	nop
10001110:	12000048 	beqz	s0,10001234 <vsprintf+0x248>
10001114:	00000000 	nop
10001118:	8e020000 	lw	v0,0(s0)
1000111c:	2631ffff 	addiu	s1,s1,-1
10001120:	a0540000 	sb	s4,0(v0)
10001124:	8e020000 	lw	v0,0(s0)
10001128:	00000000 	nop
1000112c:	24420001 	addiu	v0,v0,1
10001130:	ae020000 	sw	v0,0(s0)
10001134:	1e20fff6 	bgtz	s1,10001110 <vsprintf+0x124>
10001138:	00000000 	nop
1000113c:	2471ffff 	addiu	s1,v1,-1
10001140:	02518821 	addu	s1,s2,s1
10001144:	27b2000f 	addiu	s2,sp,15
10001148:	1232ffc6 	beq	s1,s2,10001064 <vsprintf+0x78>
1000114c:	00000000 	nop
10001150:	82240000 	lb	a0,0(s1)
10001154:	12000009 	beqz	s0,1000117c <vsprintf+0x190>
10001158:	00000000 	nop
1000115c:	8e020000 	lw	v0,0(s0)
10001160:	2631ffff 	addiu	s1,s1,-1
10001164:	a0440000 	sb	a0,0(v0)
10001168:	8e020000 	lw	v0,0(s0)
1000116c:	00000000 	nop
10001170:	24420001 	addiu	v0,v0,1
10001174:	08000452 	j	10001148 <vsprintf+0x15c>
10001178:	ae020000 	sw	v0,0(s0)
1000117c:	0c0003bb 	jal	10000eec <printchar.part.0>
10001180:	2631ffff 	addiu	s1,s1,-1
10001184:	08000452 	j	10001148 <vsprintf+0x15c>
10001188:	00000000 	nop
1000118c:	24140020 	li	s4,32
10001190:	00008825 	move	s1,zero
10001194:	00111040 	sll	v0,s1,0x1
10001198:	001188c0 	sll	s1,s1,0x3
1000119c:	00518821 	addu	s1,v0,s1
100011a0:	26d60001 	addiu	s6,s6,1
100011a4:	02238821 	addu	s1,s1,v1
100011a8:	82c30000 	lb	v1,0(s6)
100011ac:	00000000 	nop
100011b0:	2462ffd0 	addiu	v0,v1,-48
100011b4:	304200ff 	andi	v0,v0,0xff
100011b8:	2c42000a 	sltiu	v0,v0,10
100011bc:	1440fff5 	bnez	v0,10001194 <vsprintf+0x1a8>
100011c0:	2631ffd0 	addiu	s1,s1,-48
100011c4:	2404006c 	li	a0,108
100011c8:	1464ffbb 	bne	v1,a0,100010b8 <vsprintf+0xcc>
100011cc:	00601025 	move	v0,v1
100011d0:	82c20001 	lb	v0,1(s6)
100011d4:	0800042e 	j	100010b8 <vsprintf+0xcc>
100011d8:	26d60001 	addiu	s6,s6,1
100011dc:	12000008 	beqz	s0,10001200 <vsprintf+0x214>
100011e0:	00000000 	nop
100011e4:	8e020000 	lw	v0,0(s0)
100011e8:	00000000 	nop
100011ec:	a0400000 	sb	zero,0(v0)
100011f0:	8e020000 	lw	v0,0(s0)
100011f4:	00000000 	nop
100011f8:	24420001 	addiu	v0,v0,1
100011fc:	ae020000 	sw	v0,0(s0)
10001200:	8fbf004c 	lw	ra,76(sp)
10001204:	8fbe0048 	lw	s8,72(sp)
10001208:	8fb70044 	lw	s7,68(sp)
1000120c:	8fb60040 	lw	s6,64(sp)
10001210:	8fb5003c 	lw	s5,60(sp)
10001214:	8fb40038 	lw	s4,56(sp)
10001218:	8fb30034 	lw	s3,52(sp)
1000121c:	8fb20030 	lw	s2,48(sp)
10001220:	8fb1002c 	lw	s1,44(sp)
10001224:	8fb00028 	lw	s0,40(sp)
10001228:	00001025 	move	v0,zero
1000122c:	03e00008 	jr	ra
10001230:	27bd0050 	addiu	sp,sp,80
10001234:	02802025 	move	a0,s4
10001238:	afa30020 	sw	v1,32(sp)
1000123c:	0c0003bb 	jal	10000eec <printchar.part.0>
10001240:	2631ffff 	addiu	s1,s1,-1
10001244:	8fa30020 	lw	v1,32(sp)
10001248:	0800044d 	j	10001134 <vsprintf+0x148>
1000124c:	00000000 	nop
10001250:	80a30002 	lb	v1,2(a1)
10001254:	00000000 	nop
10001258:	2462ffd0 	addiu	v0,v1,-48
1000125c:	304200ff 	andi	v0,v0,0xff
10001260:	2c42000a 	sltiu	v0,v0,10
10001264:	10400048 	beqz	v0,10001388 <vsprintf+0x39c>
10001268:	24b60002 	addiu	s6,a1,2
1000126c:	08000464 	j	10001190 <vsprintf+0x1a4>
10001270:	24140030 	li	s4,48
10001274:	0240f025 	move	s8,s2
10001278:	00001825 	move	v1,zero
1000127c:	27b20010 	addiu	s2,sp,16
10001280:	02a4001b 	divu	zero,s5,a0
10001284:	24630001 	addiu	v1,v1,1
10001288:	02433021 	addu	a2,s2,v1
1000128c:	00001010 	mfhi	v0
10001290:	02e21021 	addu	v0,s7,v0
10001294:	90420000 	lbu	v0,0(v0)
10001298:	0000a812 	mflo	s5
1000129c:	16a0fff8 	bnez	s5,10001280 <vsprintf+0x294>
100012a0:	a0c2ffff 	sb	v0,-1(a2)
100012a4:	08000442 	j	10001108 <vsprintf+0x11c>
100012a8:	02238823 	subu	s1,s1,v1
100012ac:	8fd20000 	lw	s2,0(s8)
100012b0:	00000000 	nop
100012b4:	12400054 	beqz	s2,10001408 <vsprintf+0x41c>
100012b8:	27de0004 	addiu	s8,s8,4
100012bc:	82440000 	lb	a0,0(s2)
100012c0:	00000000 	nop
100012c4:	10800011 	beqz	a0,1000130c <vsprintf+0x320>
100012c8:	00000000 	nop
100012cc:	1220003f 	beqz	s1,100013cc <vsprintf+0x3e0>
100012d0:	00000000 	nop
100012d4:	12000035 	beqz	s0,100013ac <vsprintf+0x3c0>
100012d8:	00000000 	nop
100012dc:	8e020000 	lw	v0,0(s0)
100012e0:	00000000 	nop
100012e4:	a0440000 	sb	a0,0(v0)
100012e8:	8e020000 	lw	v0,0(s0)
100012ec:	00000000 	nop
100012f0:	24420001 	addiu	v0,v0,1
100012f4:	ae020000 	sw	v0,0(s0)
100012f8:	26520001 	addiu	s2,s2,1
100012fc:	82440000 	lb	a0,0(s2)
10001300:	00000000 	nop
10001304:	1480fff1 	bnez	a0,100012cc <vsprintf+0x2e0>
10001308:	2631ffff 	addiu	s1,s1,-1
1000130c:	1a20ff55 	blez	s1,10001064 <vsprintf+0x78>
10001310:	00000000 	nop
10001314:	12000029 	beqz	s0,100013bc <vsprintf+0x3d0>
10001318:	00000000 	nop
1000131c:	8e020000 	lw	v0,0(s0)
10001320:	2631ffff 	addiu	s1,s1,-1
10001324:	a0540000 	sb	s4,0(v0)
10001328:	8e020000 	lw	v0,0(s0)
1000132c:	00000000 	nop
10001330:	24420001 	addiu	v0,v0,1
10001334:	080004c3 	j	1000130c <vsprintf+0x320>
10001338:	ae020000 	sw	v0,0(s0)
1000133c:	08000439 	j	100010e4 <vsprintf+0xf8>
10001340:	24040010 	li	a0,16
10001344:	8fd50000 	lw	s5,0(s8)
10001348:	00000000 	nop
1000134c:	06a00021 	bltz	s5,100013d4 <vsprintf+0x3e8>
10001350:	27d20004 	addiu	s2,s8,4
10001354:	0800043b 	j	100010ec <vsprintf+0x100>
10001358:	2404000a 	li	a0,10
1000135c:	83c40003 	lb	a0,3(s8)
10001360:	1200002c 	beqz	s0,10001414 <vsprintf+0x428>
10001364:	27d10004 	addiu	s1,s8,4
10001368:	8e020000 	lw	v0,0(s0)
1000136c:	0220f025 	move	s8,s1
10001370:	a0440000 	sb	a0,0(v0)
10001374:	8e020000 	lw	v0,0(s0)
10001378:	00000000 	nop
1000137c:	24420001 	addiu	v0,v0,1
10001380:	08000419 	j	10001064 <vsprintf+0x78>
10001384:	ae020000 	sw	v0,0(s0)
10001388:	00601025 	move	v0,v1
1000138c:	24140030 	li	s4,48
10001390:	0800042b 	j	100010ac <vsprintf+0xc0>
10001394:	2411ffff 	li	s1,-1
10001398:	0c0003bb 	jal	10000eec <printchar.part.0>
1000139c:	afa50020 	sw	a1,32(sp)
100013a0:	8fa50020 	lw	a1,32(sp)
100013a4:	08000419 	j	10001064 <vsprintf+0x78>
100013a8:	00a0b025 	move	s6,a1
100013ac:	0c0003bb 	jal	10000eec <printchar.part.0>
100013b0:	26520001 	addiu	s2,s2,1
100013b4:	080004bf 	j	100012fc <vsprintf+0x310>
100013b8:	00000000 	nop
100013bc:	0c0003bb 	jal	10000eec <printchar.part.0>
100013c0:	02802025 	move	a0,s4
100013c4:	080004c3 	j	1000130c <vsprintf+0x320>
100013c8:	2631ffff 	addiu	s1,s1,-1
100013cc:	080004c3 	j	1000130c <vsprintf+0x320>
100013d0:	00008825 	move	s1,zero
100013d4:	12000013 	beqz	s0,10001424 <vsprintf+0x438>
100013d8:	0015a823 	negu	s5,s5
100013dc:	8e020000 	lw	v0,0(s0)
100013e0:	2403002d 	li	v1,45
100013e4:	a0430000 	sb	v1,0(v0)
100013e8:	8e020000 	lw	v0,0(s0)
100013ec:	00000000 	nop
100013f0:	24420001 	addiu	v0,v0,1
100013f4:	ae020000 	sw	v0,0(s0)
100013f8:	2631ffff 	addiu	s1,s1,-1
100013fc:	0240f025 	move	s8,s2
10001400:	0800049e 	j	10001278 <vsprintf+0x28c>
10001404:	2404000a 	li	a0,10
10001408:	3c021000 	lui	v0,0x1000
1000140c:	080004af 	j	100012bc <vsprintf+0x2d0>
10001410:	24522db0 	addiu	s2,v0,11696
10001414:	0c0003bb 	jal	10000eec <printchar.part.0>
10001418:	0220f025 	move	s8,s1
1000141c:	08000419 	j	10001064 <vsprintf+0x78>
10001420:	00000000 	nop
10001424:	0c0000af 	jal	100002bc <putchar>
10001428:	2404002d 	li	a0,45
1000142c:	080004ff 	j	100013fc <vsprintf+0x410>
10001430:	2631ffff 	addiu	s1,s1,-1

10001434 <strncpy>:
10001434:	18c00010 	blez	a2,10001478 <strncpy+0x44>
10001438:	00801025 	move	v0,a0
1000143c:	80a40000 	lb	a0,0(a1)
10001440:	24430001 	addiu	v1,v0,1
10001444:	a0440000 	sb	a0,0(v0)
10001448:	14800007 	bnez	a0,10001468 <strncpy+0x34>
1000144c:	00003825 	move	a3,zero
10001450:	0800052a 	j	100014a8 <strncpy+0x74>
10001454:	24070001 	li	a3,1
10001458:	81080000 	lb	t0,0(t0)
1000145c:	00000000 	nop
10001460:	11000007 	beqz	t0,10001480 <strncpy+0x4c>
10001464:	a068ffff 	sb	t0,-1(v1)
10001468:	24e70001 	addiu	a3,a3,1
1000146c:	00a74021 	addu	t0,a1,a3
10001470:	14e6fff9 	bne	a3,a2,10001458 <strncpy+0x24>
10001474:	24630001 	addiu	v1,v1,1
10001478:	03e00008 	jr	ra
1000147c:	00000000 	nop
10001480:	24e70001 	addiu	a3,a3,1
10001484:	00e6202a 	slt	a0,a3,a2
10001488:	1080fffb 	beqz	a0,10001478 <strncpy+0x44>
1000148c:	00c73823 	subu	a3,a2,a3
10001490:	00673821 	addu	a3,v1,a3
10001494:	24630001 	addiu	v1,v1,1
10001498:	1467fffe 	bne	v1,a3,10001494 <strncpy+0x60>
1000149c:	a060ffff 	sb	zero,-1(v1)
100014a0:	03e00008 	jr	ra
100014a4:	00000000 	nop
100014a8:	08000522 	j	10001488 <strncpy+0x54>
100014ac:	00e6202a 	slt	a0,a3,a2

100014b0 <memset>:
100014b0:	10c00007 	beqz	a2,100014d0 <memset+0x20>
100014b4:	00801025 	move	v0,a0
100014b8:	30a500ff 	andi	a1,a1,0xff
100014bc:	00863021 	addu	a2,a0,a2
100014c0:	00801825 	move	v1,a0
100014c4:	24630001 	addiu	v1,v1,1
100014c8:	1466fffe 	bne	v1,a2,100014c4 <memset+0x14>
100014cc:	a065ffff 	sb	a1,-1(v1)
100014d0:	03e00008 	jr	ra
100014d4:	00000000 	nop

100014d8 <printf>:
100014d8:	27bdffe0 	addiu	sp,sp,-32
100014dc:	27a20024 	addiu	v0,sp,36
100014e0:	00801825 	move	v1,a0
100014e4:	00002025 	move	a0,zero
100014e8:	afa50024 	sw	a1,36(sp)
100014ec:	afa60028 	sw	a2,40(sp)
100014f0:	00602825 	move	a1,v1
100014f4:	00403025 	move	a2,v0
100014f8:	afbf001c 	sw	ra,28(sp)
100014fc:	afa7002c 	sw	a3,44(sp)
10001500:	0c0003fb 	jal	10000fec <vsprintf>
10001504:	afa20010 	sw	v0,16(sp)
10001508:	8fbf001c 	lw	ra,28(sp)
1000150c:	00000000 	nop
10001510:	03e00008 	jr	ra
10001514:	27bd0020 	addiu	sp,sp,32

10001518 <__udivdi3>:
10001518:	00c71025 	or	v0,a2,a3
1000151c:	14400003 	bnez	v0,1000152c <__udivdi3+0x14>
10001520:	24030001 	li	v1,1
10001524:	03e00008 	jr	ra
10001528:	00001025 	move	v0,zero
1000152c:	27bdffe0 	addiu	sp,sp,-32
10001530:	afa00010 	sw	zero,16(sp)
10001534:	afbf001c 	sw	ra,28(sp)
10001538:	0c0003c1 	jal	10000f04 <__udivmoddi4.part.1>
1000153c:	00000000 	nop
10001540:	8fbf001c 	lw	ra,28(sp)
10001544:	00000000 	nop
10001548:	03e00008 	jr	ra
1000154c:	27bd0020 	addiu	sp,sp,32

10001550 <main>:
10001550:	27bdffd0 	addiu	sp,sp,-48
10001554:	afbf002c 	sw	ra,44(sp)
10001558:	afb30028 	sw	s3,40(sp)
1000155c:	afb20024 	sw	s2,36(sp)
10001560:	afb10020 	sw	s1,32(sp)
10001564:	0c0000b3 	jal	100002cc <_hardware_init>
10001568:	afb0001c 	sw	s0,28(sp)
1000156c:	0c000801 	jal	10002004 <hf_schedlock>
10001570:	24040001 	li	a0,1
10001574:	0c00007b 	jal	100001ec <_interrupt_set>
10001578:	00002025 	move	a0,zero
1000157c:	3c041000 	lui	a0,0x1000
10001580:	0c0001f9 	jal	100007e4 <kprintf>
10001584:	24842e98 	addiu	a0,a0,11928
10001588:	3c031001 	lui	v1,0x1001
1000158c:	3c02baad 	lui	v0,0xbaad
10001590:	8c6407f0 	lw	a0,2032(v1)
10001594:	3442d00d 	ori	v0,v0,0xd00d
10001598:	1082000b 	beq	a0,v0,100015c8 <main+0x78>
1000159c:	3c041000 	lui	a0,0x1000
100015a0:	0c000797 	jal	10001e5c <panic>
100015a4:	24040001 	li	a0,1
100015a8:	8fbf002c 	lw	ra,44(sp)
100015ac:	8fb30028 	lw	s3,40(sp)
100015b0:	8fb20024 	lw	s2,36(sp)
100015b4:	8fb10020 	lw	s1,32(sp)
100015b8:	8fb0001c 	lw	s0,28(sp)
100015bc:	00001025 	move	v0,zero
100015c0:	03e00008 	jr	ra
100015c4:	27bd0030 	addiu	sp,sp,48
100015c8:	24842eac 	addiu	a0,a0,11948
100015cc:	0c0001f9 	jal	100007e4 <kprintf>
100015d0:	ac6007f0 	sw	zero,2032(v1)
100015d4:	3c021000 	lui	v0,0x1000
100015d8:	24422f2c 	addiu	v0,v0,12076
100015dc:	3c061000 	lui	a2,0x1000
100015e0:	3c071000 	lui	a3,0x1000
100015e4:	3c051000 	lui	a1,0x1000
100015e8:	3c041000 	lui	a0,0x1000
100015ec:	24c62f18 	addiu	a2,a2,12056
100015f0:	24e72f20 	addiu	a3,a3,12064
100015f4:	24a52f0c 	addiu	a1,a1,12044
100015f8:	24842eec 	addiu	a0,a0,12012
100015fc:	0c0001f9 	jal	100007e4 <kprintf>
10001600:	afa20010 	sw	v0,16(sp)
10001604:	3c041000 	lui	a0,0x1000
10001608:	0c0001f9 	jal	100007e4 <kprintf>
1000160c:	24842f38 	addiu	a0,a0,12088
10001610:	3c041000 	lui	a0,0x1000
10001614:	0c0001f9 	jal	100007e4 <kprintf>
10001618:	24842f70 	addiu	a0,a0,12144
1000161c:	3c041000 	lui	a0,0x1000
10001620:	3c051000 	lui	a1,0x1000
10001624:	24842fb0 	addiu	a0,a0,12208
10001628:	0c0001f9 	jal	100007e4 <kprintf>
1000162c:	24a52fc4 	addiu	a1,a1,12228
10001630:	3c041000 	lui	a0,0x1000
10001634:	24842fd0 	addiu	a0,a0,12240
10001638:	0c0001f9 	jal	100007e4 <kprintf>
1000163c:	240561a8 	li	a1,25000
10001640:	3c041000 	lui	a0,0x1000
10001644:	24842fe8 	addiu	a0,a0,12264
10001648:	0c0001f9 	jal	100007e4 <kprintf>
1000164c:	240528f0 	li	a1,10480
10001650:	3c041000 	lui	a0,0x1000
10001654:	3c050007 	lui	a1,0x7
10001658:	24843000 	addiu	a0,a0,12288
1000165c:	0c0001f9 	jal	100007e4 <kprintf>
10001660:	34a5a120 	ori	a1,a1,0xa120
10001664:	3c041000 	lui	a0,0x1000
10001668:	2484301c 	addiu	a0,a0,12316
1000166c:	2405001e 	li	a1,30
10001670:	3c101001 	lui	s0,0x1001
10001674:	0c0001f9 	jal	100007e4 <kprintf>
10001678:	3c121001 	lui	s2,0x1001
1000167c:	0c0000c2 	jal	10000308 <_vm_init>
10001680:	261008bc 	addiu	s0,s0,2236
10001684:	26521a8c 	addiu	s2,s2,6796
10001688:	3c111009 	lui	s1,0x1009
1000168c:	2413ffff 	li	s3,-1
10001690:	26040002 	addiu	a0,s0,2
10001694:	00002825 	move	a1,zero
10001698:	24060014 	li	a2,20
1000169c:	ae30bc7c 	sw	s0,-17284(s1)
100016a0:	0c00052c 	jal	100014b0 <memset>
100016a4:	a6130000 	sh	s3,0(s0)
100016a8:	8e22bc7c 	lw	v0,-17284(s1)
100016ac:	26100098 	addiu	s0,s0,152
100016b0:	a0400016 	sb	zero,22(v0)
100016b4:	a0400017 	sb	zero,23(v0)
100016b8:	a0400018 	sb	zero,24(v0)
100016bc:	ac40001c 	sw	zero,28(v0)
100016c0:	ac400020 	sw	zero,32(v0)
100016c4:	ac400024 	sw	zero,36(v0)
100016c8:	ac400028 	sw	zero,40(v0)
100016cc:	a440002c 	sh	zero,44(v0)
100016d0:	a440002e 	sh	zero,46(v0)
100016d4:	a4400030 	sh	zero,48(v0)
100016d8:	a4400032 	sh	zero,50(v0)
100016dc:	a4400034 	sh	zero,52(v0)
100016e0:	ac400088 	sw	zero,136(v0)
100016e4:	ac40008c 	sw	zero,140(v0)
100016e8:	ac400090 	sw	zero,144(v0)
100016ec:	1612ffe8 	bne	s0,s2,10001690 <main+0x140>
100016f0:	ac400094 	sw	zero,148(v0)
100016f4:	3c031009 	lui	v1,0x1009
100016f8:	a460bc84 	sh	zero,-17276(v1)
100016fc:	3c031009 	lui	v1,0x1009
10001700:	a460bc78 	sh	zero,-17288(v1)
10001704:	3c031009 	lui	v1,0x1009
10001708:	a460bc94 	sh	zero,-17260(v1)
1000170c:	3c031000 	lui	v1,0x1000
10001710:	3c051009 	lui	a1,0x1009
10001714:	24632720 	addiu	v1,v1,10016
10001718:	aca3bbac 	sw	v1,-17492(a1)
1000171c:	3c031000 	lui	v1,0x1000
10001720:	24a2bbac 	addiu	v0,a1,-17492
10001724:	246325bc 	addiu	v1,v1,9660
10001728:	2404001e 	li	a0,30
1000172c:	ac430004 	sw	v1,4(v0)
10001730:	ac400008 	sw	zero,8(v0)
10001734:	ac40000c 	sw	zero,12(v0)
10001738:	ac400010 	sw	zero,16(v0)
1000173c:	0c000809 	jal	10002024 <hf_queue_create>
10001740:	ac400014 	sw	zero,20(v0)
10001744:	3c031009 	lui	v1,0x1009
10001748:	10400023 	beqz	v0,100017d8 <main+0x288>
1000174c:	ac62bc8c 	sw	v0,-17268(v1)
10001750:	0c000809 	jal	10002024 <hf_queue_create>
10001754:	2404001e 	li	a0,30
10001758:	3c031009 	lui	v1,0x1009
1000175c:	1040001a 	beqz	v0,100017c8 <main+0x278>
10001760:	ac62bc98 	sw	v0,-17256(v1)
10001764:	0c000809 	jal	10002024 <hf_queue_create>
10001768:	2404001e 	li	a0,30
1000176c:	3c031009 	lui	v1,0x1009
10001770:	10400011 	beqz	v0,100017b8 <main+0x268>
10001774:	ac62bc90 	sw	v0,-17264(v1)
10001778:	0c0000ce 	jal	10000338 <_sched_init>
1000177c:	00000000 	nop
10001780:	0c0000d1 	jal	10000344 <_timer_init>
10001784:	00000000 	nop
10001788:	0c000162 	jal	10000588 <_timer_reset>
1000178c:	00000000 	nop
10001790:	0c0000e6 	jal	10000398 <_irq_init>
10001794:	00000000 	nop
10001798:	0c0000e9 	jal	100003a4 <_device_init>
1000179c:	00000000 	nop
100017a0:	0c0000f1 	jal	100003c4 <_task_init>
100017a4:	00000000 	nop
100017a8:	0c000797 	jal	10001e5c <panic>
100017ac:	00002025 	move	a0,zero
100017b0:	0800056a 	j	100015a8 <main+0x58>
100017b4:	00000000 	nop
100017b8:	0c000797 	jal	10001e5c <panic>
100017bc:	24040004 	li	a0,4
100017c0:	080005de 	j	10001778 <main+0x228>
100017c4:	00000000 	nop
100017c8:	0c000797 	jal	10001e5c <panic>
100017cc:	24040004 	li	a0,4
100017d0:	080005d9 	j	10001764 <main+0x214>
100017d4:	00000000 	nop
100017d8:	0c000797 	jal	10001e5c <panic>
100017dc:	24040004 	li	a0,4
100017e0:	080005d4 	j	10001750 <main+0x200>
100017e4:	00000000 	nop

100017e8 <hf_free>:
100017e8:	27bdffe0 	addiu	sp,sp,-32
100017ec:	afb00014 	sw	s0,20(sp)
100017f0:	3c101001 	lui	s0,0x1001
100017f4:	afb10018 	sw	s1,24(sp)
100017f8:	00808825 	move	s1,a0
100017fc:	afbf001c 	sw	ra,28(sp)
10001800:	0c000680 	jal	10001a00 <hf_mtxlock>
10001804:	260408b8 	addiu	a0,s0,2232
10001808:	8e23fffc 	lw	v1,-4(s1)
1000180c:	3c051009 	lui	a1,0x1009
10001810:	8ca2bc88 	lw	v0,-17272(a1)
10001814:	2404fffe 	li	a0,-2
10001818:	00641824 	and	v1,v1,a0
1000181c:	3c041009 	lui	a0,0x1009
10001820:	8c86bca0 	lw	a2,-17248(a0)
10001824:	8fbf001c 	lw	ra,28(sp)
10001828:	ae23fffc 	sw	v1,-4(s1)
1000182c:	24420008 	addiu	v0,v0,8
10001830:	8fb10018 	lw	s1,24(sp)
10001834:	260408b8 	addiu	a0,s0,2232
10001838:	8fb00014 	lw	s0,20(sp)
1000183c:	00431021 	addu	v0,v0,v1
10001840:	3c031009 	lui	v1,0x1009
10001844:	27bd0020 	addiu	sp,sp,32
10001848:	ac66bc9c 	sw	a2,-17252(v1)
1000184c:	08000699 	j	10001a64 <hf_mtxunlock>
10001850:	aca2bc88 	sw	v0,-17272(a1)

10001854 <hf_malloc>:
10001854:	27bdffe0 	addiu	sp,sp,-32
10001858:	afb20018 	sw	s2,24(sp)
1000185c:	3c121001 	lui	s2,0x1001
10001860:	24820003 	addiu	v0,a0,3
10001864:	afb10014 	sw	s1,20(sp)
10001868:	264408b8 	addiu	a0,s2,2232
1000186c:	2411fffc 	li	s1,-4
10001870:	afb00010 	sw	s0,16(sp)
10001874:	afbf001c 	sw	ra,28(sp)
10001878:	0c000680 	jal	10001a00 <hf_mtxlock>
1000187c:	00518824 	and	s1,v0,s1
10001880:	3c041009 	lui	a0,0x1009
10001884:	8c85bc9c 	lw	a1,-17252(a0)
10001888:	2408fff8 	li	t0,-8
1000188c:	00a08025 	move	s0,a1
10001890:	26270008 	addiu	a3,s1,8
10001894:	8ca30000 	lw	v1,0(a1)
10001898:	00000000 	nop
1000189c:	10600037 	beqz	v1,1000197c <hf_malloc+0x128>
100018a0:	00000000 	nop
100018a4:	8ca20004 	lw	v0,4(a1)
100018a8:	00000000 	nop
100018ac:	30420001 	andi	v0,v0,0x1
100018b0:	14400005 	bnez	v0,100018c8 <hf_malloc+0x74>
100018b4:	00000000 	nop
100018b8:	08000637 	j	100018dc <hf_malloc+0x88>
100018bc:	00a01825 	move	v1,a1
100018c0:	8c630000 	lw	v1,0(v1)
100018c4:	00000000 	nop
100018c8:	8c620004 	lw	v0,4(v1)
100018cc:	00000000 	nop
100018d0:	30420001 	andi	v0,v0,0x1
100018d4:	1440fffa 	bnez	v0,100018c0 <hf_malloc+0x6c>
100018d8:	00608025 	move	s0,v1
100018dc:	1440000b 	bnez	v0,1000190c <hf_malloc+0xb8>
100018e0:	01101023 	subu	v0,t0,s0
100018e4:	8c650000 	lw	a1,0(v1)
100018e8:	00000000 	nop
100018ec:	10a00007 	beqz	a1,1000190c <hf_malloc+0xb8>
100018f0:	01101023 	subu	v0,t0,s0
100018f4:	8ca20004 	lw	v0,4(a1)
100018f8:	00000000 	nop
100018fc:	30420001 	andi	v0,v0,0x1
10001900:	1040fff8 	beqz	v0,100018e4 <hf_malloc+0x90>
10001904:	00a01825 	move	v1,a1
10001908:	01101023 	subu	v0,t0,s0
1000190c:	00621021 	addu	v0,v1,v0
10001910:	0047302b 	sltu	a2,v0,a3
10001914:	00602825 	move	a1,v1
10001918:	ae020004 	sw	v0,4(s0)
1000191c:	14c0ffdd 	bnez	a2,10001894 <hf_malloc+0x40>
10001920:	ae030000 	sw	v1,0(s0)
10001924:	3c051009 	lui	a1,0x1009
10001928:	8ca2bc88 	lw	v0,-17272(a1)
1000192c:	02073821 	addu	a3,s0,a3
10001930:	2442fff8 	addiu	v0,v0,-8
10001934:	36260001 	ori	a2,s1,0x1
10001938:	00518823 	subu	s1,v0,s1
1000193c:	2402fff8 	li	v0,-8
10001940:	ac90bc9c 	sw	s0,-17252(a0)
10001944:	ae060004 	sw	a2,4(s0)
10001948:	ae070000 	sw	a3,0(s0)
1000194c:	264408b8 	addiu	a0,s2,2232
10001950:	ace30000 	sw	v1,0(a3)
10001954:	ace20004 	sw	v0,4(a3)
10001958:	0c000699 	jal	10001a64 <hf_mtxunlock>
1000195c:	acb1bc88 	sw	s1,-17272(a1)
10001960:	8fbf001c 	lw	ra,28(sp)
10001964:	26020008 	addiu	v0,s0,8
10001968:	8fb20018 	lw	s2,24(sp)
1000196c:	8fb10014 	lw	s1,20(sp)
10001970:	8fb00010 	lw	s0,16(sp)
10001974:	03e00008 	jr	ra
10001978:	27bd0020 	addiu	sp,sp,32
1000197c:	0c000699 	jal	10001a64 <hf_mtxunlock>
10001980:	264408b8 	addiu	a0,s2,2232
10001984:	8fbf001c 	lw	ra,28(sp)
10001988:	8fb20018 	lw	s2,24(sp)
1000198c:	8fb10014 	lw	s1,20(sp)
10001990:	8fb00010 	lw	s0,16(sp)
10001994:	00001025 	move	v0,zero
10001998:	03e00008 	jr	ra
1000199c:	27bd0020 	addiu	sp,sp,32

100019a0 <heapinit>:
100019a0:	00801025 	move	v0,a0
100019a4:	24a30003 	addiu	v1,a1,3
100019a8:	2404fffc 	li	a0,-4
100019ac:	00641824 	and	v1,v1,a0
100019b0:	24a5fff8 	addiu	a1,a1,-8
100019b4:	00452821 	addu	a1,v0,a1
100019b8:	2463fff0 	addiu	v1,v1,-16
100019bc:	ac450000 	sw	a1,0(v0)
100019c0:	ac430004 	sw	v1,4(v0)
100019c4:	aca00004 	sw	zero,4(a1)
100019c8:	8c430004 	lw	v1,4(v0)
100019cc:	aca00000 	sw	zero,0(a1)
100019d0:	3c051009 	lui	a1,0x1009
100019d4:	aca2bca0 	sw	v0,-17248(a1)
100019d8:	3c041001 	lui	a0,0x1001
100019dc:	3c051009 	lui	a1,0x1009
100019e0:	aca2bc9c 	sw	v0,-17252(a1)
100019e4:	248408b8 	addiu	a0,a0,2232
100019e8:	3c021009 	lui	v0,0x1009
100019ec:	0800067d 	j	100019f4 <hf_mtxinit>
100019f0:	ac43bc88 	sw	v1,-17272(v0)

100019f4 <hf_mtxinit>:
100019f4:	ac800000 	sw	zero,0(a0)
100019f8:	03e00008 	jr	ra
100019fc:	00000000 	nop

10001a00 <hf_mtxlock>:
10001a00:	27bdffd8 	addiu	sp,sp,-40
10001a04:	afb10020 	sw	s1,32(sp)
10001a08:	afb0001c 	sw	s0,28(sp)
10001a0c:	afbf0024 	sw	ra,36(sp)
10001a10:	00808825 	move	s1,a0
10001a14:	24100001 	li	s0,1
10001a18:	0c00007b 	jal	100001ec <_interrupt_set>
10001a1c:	00002025 	move	a0,zero
10001a20:	afa20014 	sw	v0,20(sp)
10001a24:	8e220000 	lw	v0,0(s1)
10001a28:	00000000 	nop
10001a2c:	afa20010 	sw	v0,16(sp)
10001a30:	ae300000 	sw	s0,0(s1)
10001a34:	8fa40014 	lw	a0,20(sp)
10001a38:	0c00007b 	jal	100001ec <_interrupt_set>
10001a3c:	00000000 	nop
10001a40:	8fa20010 	lw	v0,16(sp)
10001a44:	00000000 	nop
10001a48:	1050fff3 	beq	v0,s0,10001a18 <hf_mtxlock+0x18>
10001a4c:	00000000 	nop
10001a50:	8fbf0024 	lw	ra,36(sp)
10001a54:	8fb10020 	lw	s1,32(sp)
10001a58:	8fb0001c 	lw	s0,28(sp)
10001a5c:	03e00008 	jr	ra
10001a60:	27bd0028 	addiu	sp,sp,40

10001a64 <hf_mtxunlock>:
10001a64:	ac800000 	sw	zero,0(a0)
10001a68:	03e00008 	jr	ra
10001a6c:	00000000 	nop

10001a70 <_ni_status>:
10001a70:	3c022000 	lui	v0,0x2000
10001a74:	8c420090 	lw	v0,144(v0)
10001a78:	03e00008 	jr	ra
10001a7c:	3042ffff 	andi	v0,v0,0xffff

10001a80 <_ni_read>:
10001a80:	3c022000 	lui	v0,0x2000
10001a84:	8c420070 	lw	v0,112(v0)
10001a88:	03e00008 	jr	ra
10001a8c:	3042ffff 	andi	v0,v0,0xffff

10001a90 <ni_flush>:
10001a90:	27bdffe0 	addiu	sp,sp,-32
10001a94:	afb10014 	sw	s1,20(sp)
10001a98:	3091ffff 	andi	s1,a0,0xffff
10001a9c:	afb20018 	sw	s2,24(sp)
10001aa0:	afb00010 	sw	s0,16(sp)
10001aa4:	afbf001c 	sw	ra,28(sp)
10001aa8:	0c00007b 	jal	100001ec <_interrupt_set>
10001aac:	00002025 	move	a0,zero
10001ab0:	00409025 	move	s2,v0
10001ab4:	0c0006a0 	jal	10001a80 <_ni_read>
10001ab8:	00008025 	move	s0,zero
10001abc:	12200005 	beqz	s1,10001ad4 <ni_flush+0x44>
10001ac0:	00000000 	nop
10001ac4:	0c0006a0 	jal	10001a80 <_ni_read>
10001ac8:	26100001 	addiu	s0,s0,1
10001acc:	1611fffd 	bne	s0,s1,10001ac4 <ni_flush+0x34>
10001ad0:	00000000 	nop
10001ad4:	0c00007b 	jal	100001ec <_interrupt_set>
10001ad8:	02402025 	move	a0,s2
10001adc:	0c00069c 	jal	10001a70 <_ni_status>
10001ae0:	00000000 	nop
10001ae4:	8fbf001c 	lw	ra,28(sp)
10001ae8:	8fb20018 	lw	s2,24(sp)
10001aec:	8fb10014 	lw	s1,20(sp)
10001af0:	8fb00010 	lw	s0,16(sp)
10001af4:	30420001 	andi	v0,v0,0x1
10001af8:	03e00008 	jr	ra
10001afc:	27bd0020 	addiu	sp,sp,32

10001b00 <ni_read_packet>:
10001b00:	27bdffd8 	addiu	sp,sp,-40
10001b04:	afb2001c 	sw	s2,28(sp)
10001b08:	00809025 	move	s2,a0
10001b0c:	00002025 	move	a0,zero
10001b10:	afb30020 	sw	s3,32(sp)
10001b14:	afb10018 	sw	s1,24(sp)
10001b18:	afbf0024 	sw	ra,36(sp)
10001b1c:	afb00014 	sw	s0,20(sp)
10001b20:	0c00007b 	jal	100001ec <_interrupt_set>
10001b24:	30b1ffff 	andi	s1,a1,0xffff
10001b28:	0c0006a0 	jal	10001a80 <_ni_read>
10001b2c:	00409825 	move	s3,v0
10001b30:	12200008 	beqz	s1,10001b54 <ni_read_packet+0x54>
10001b34:	00118840 	sll	s1,s1,0x1
10001b38:	00008025 	move	s0,zero
10001b3c:	0c0006a0 	jal	10001a80 <_ni_read>
10001b40:	00000000 	nop
10001b44:	02501821 	addu	v1,s2,s0
10001b48:	26100002 	addiu	s0,s0,2
10001b4c:	1611fffb 	bne	s0,s1,10001b3c <ni_read_packet+0x3c>
10001b50:	a4620000 	sh	v0,0(v1)
10001b54:	0c00007b 	jal	100001ec <_interrupt_set>
10001b58:	02602025 	move	a0,s3
10001b5c:	8fbf0024 	lw	ra,36(sp)
10001b60:	8fb30020 	lw	s3,32(sp)
10001b64:	8fb2001c 	lw	s2,28(sp)
10001b68:	8fb10018 	lw	s1,24(sp)
10001b6c:	8fb00014 	lw	s0,20(sp)
10001b70:	00001025 	move	v0,zero
10001b74:	03e00008 	jr	ra
10001b78:	27bd0028 	addiu	sp,sp,40

10001b7c <ni_isr>:
10001b7c:	27bdffe0 	addiu	sp,sp,-32
10001b80:	afb10018 	sw	s1,24(sp)
10001b84:	3c111009 	lui	s1,0x1009
10001b88:	8e24bca8 	lw	a0,-17240(s1)
10001b8c:	afb00014 	sw	s0,20(sp)
10001b90:	afbf001c 	sw	ra,28(sp)
10001b94:	0c000840 	jal	10002100 <hf_queue_remhead>
10001b98:	00000000 	nop
10001b9c:	1040004f 	beqz	v0,10001cdc <ni_isr+0x160>
10001ba0:	00408025 	move	s0,v0
10001ba4:	00402025 	move	a0,v0
10001ba8:	0c0006c0 	jal	10001b00 <ni_read_packet>
10001bac:	24050040 	li	a1,64
10001bb0:	96030002 	lhu	v1,2(s0)
10001bb4:	2402003e 	li	v0,62
10001bb8:	14620035 	bne	v1,v0,10001c90 <ni_isr+0x114>
10001bbc:	24020012 	li	v0,18
10001bc0:	96060000 	lhu	a2,0(s0)
10001bc4:	00000000 	nop
10001bc8:	14c20038 	bne	a2,v0,10001cac <ni_isr+0x130>
10001bcc:	30c500f0 	andi	a1,a2,0xf0
10001bd0:	96050008 	lhu	a1,8(s0)
10001bd4:	00000000 	nop
10001bd8:	10a0002d 	beqz	a1,10001c90 <ni_isr+0x114>
10001bdc:	3402ffff 	li	v0,0xffff
10001be0:	10a20024 	beq	a1,v0,10001c74 <ni_isr+0xf8>
10001be4:	3c021009 	lui	v0,0x1009
10001be8:	2442bbc4 	addiu	v0,v0,-17468
10001bec:	00001825 	move	v1,zero
10001bf0:	08000701 	j	10001c04 <ni_isr+0x88>
10001bf4:	2406001e 	li	a2,30
10001bf8:	24630001 	addiu	v1,v1,1
10001bfc:	10660045 	beq	v1,a2,10001d14 <ni_isr+0x198>
10001c00:	00000000 	nop
10001c04:	94440000 	lhu	a0,0(v0)
10001c08:	00000000 	nop
10001c0c:	1485fffa 	bne	a0,a1,10001bf8 <ni_isr+0x7c>
10001c10:	24420002 	addiu	v0,v0,2
10001c14:	00032080 	sll	a0,v1,0x2
10001c18:	00031100 	sll	v0,v1,0x4
10001c1c:	00821021 	addu	v0,a0,v0
10001c20:	00431823 	subu	v1,v0,v1
10001c24:	3c021001 	lui	v0,0x1001
10001c28:	000318c0 	sll	v1,v1,0x3
10001c2c:	244208bc 	addiu	v0,v0,2236
10001c30:	00621021 	addu	v0,v1,v0
10001c34:	8c420088 	lw	v0,136(v0)
10001c38:	00000000 	nop
10001c3c:	10400035 	beqz	v0,10001d14 <ni_isr+0x198>
10001c40:	3c021009 	lui	v0,0x1009
10001c44:	2442bc00 	addiu	v0,v0,-17408
10001c48:	00822021 	addu	a0,a0,v0
10001c4c:	8c840000 	lw	a0,0(a0)
10001c50:	0c00082a 	jal	100020a8 <hf_queue_addtail>
10001c54:	02002825 	move	a1,s0
10001c58:	14400029 	bnez	v0,10001d00 <ni_isr+0x184>
10001c5c:	3c041000 	lui	a0,0x1000
10001c60:	8fbf001c 	lw	ra,28(sp)
10001c64:	8fb10018 	lw	s1,24(sp)
10001c68:	8fb00014 	lw	s0,20(sp)
10001c6c:	03e00008 	jr	ra
10001c70:	27bd0020 	addiu	sp,sp,32
10001c74:	3c021009 	lui	v0,0x1009
10001c78:	8c42bca4 	lw	v0,-17244(v0)
10001c7c:	00000000 	nop
10001c80:	10400003 	beqz	v0,10001c90 <ni_isr+0x114>
10001c84:	00000000 	nop
10001c88:	0040f809 	jalr	v0
10001c8c:	02002025 	move	a0,s0
10001c90:	8fbf001c 	lw	ra,28(sp)
10001c94:	8e24bca8 	lw	a0,-17240(s1)
10001c98:	02002825 	move	a1,s0
10001c9c:	8fb10018 	lw	s1,24(sp)
10001ca0:	8fb00014 	lw	s0,20(sp)
10001ca4:	0800082a 	j	100020a8 <hf_queue_addtail>
10001ca8:	27bd0020 	addiu	sp,sp,32
10001cac:	3c041000 	lui	a0,0x1000
10001cb0:	24843030 	addiu	a0,a0,12336
10001cb4:	00052902 	srl	a1,a1,0x4
10001cb8:	0c0001f9 	jal	100007e4 <kprintf>
10001cbc:	30c6000f 	andi	a2,a2,0xf
10001cc0:	8fbf001c 	lw	ra,28(sp)
10001cc4:	8e24bca8 	lw	a0,-17240(s1)
10001cc8:	02002825 	move	a1,s0
10001ccc:	8fb10018 	lw	s1,24(sp)
10001cd0:	8fb00014 	lw	s0,20(sp)
10001cd4:	0800082a 	j	100020a8 <hf_queue_addtail>
10001cd8:	27bd0020 	addiu	sp,sp,32
10001cdc:	3c041000 	lui	a0,0x1000
10001ce0:	0c0001f9 	jal	100007e4 <kprintf>
10001ce4:	248430ec 	addiu	a0,a0,12524
10001ce8:	8fbf001c 	lw	ra,28(sp)
10001cec:	8fb10018 	lw	s1,24(sp)
10001cf0:	8fb00014 	lw	s0,20(sp)
10001cf4:	24040040 	li	a0,64
10001cf8:	080006a4 	j	10001a90 <ni_flush>
10001cfc:	27bd0020 	addiu	sp,sp,32
10001d00:	96050008 	lhu	a1,8(s0)
10001d04:	0c0001f9 	jal	100007e4 <kprintf>
10001d08:	24843064 	addiu	a0,a0,12388
10001d0c:	08000724 	j	10001c90 <ni_isr+0x114>
10001d10:	00000000 	nop
10001d14:	96060004 	lhu	a2,4(s0)
10001d18:	96070006 	lhu	a3,6(s0)
10001d1c:	3c041000 	lui	a0,0x1000
10001d20:	0c0001f9 	jal	100007e4 <kprintf>
10001d24:	248430a0 	addiu	a0,a0,12448
10001d28:	08000724 	j	10001c90 <ni_isr+0x114>
10001d2c:	00000000 	nop

10001d30 <ni_init>:
10001d30:	3c041000 	lui	a0,0x1000
10001d34:	27bdffd8 	addiu	sp,sp,-40
10001d38:	24843118 	addiu	a0,a0,12568
10001d3c:	24050009 	li	a1,9
10001d40:	afbf0024 	sw	ra,36(sp)
10001d44:	afb10020 	sw	s1,32(sp)
10001d48:	0c0001f9 	jal	100007e4 <kprintf>
10001d4c:	afb0001c 	sw	s0,28(sp)
10001d50:	3c041000 	lui	a0,0x1000
10001d54:	24843134 	addiu	a0,a0,12596
10001d58:	0c0001f9 	jal	100007e4 <kprintf>
10001d5c:	24050040 	li	a1,64
10001d60:	0c000809 	jal	10002024 <hf_queue_create>
10001d64:	24040040 	li	a0,64
10001d68:	3c111009 	lui	s1,0x1009
10001d6c:	10400035 	beqz	v0,10001e44 <ni_init+0x114>
10001d70:	ae22bca8 	sw	v0,-17240(s1)
10001d74:	3c021009 	lui	v0,0x1009
10001d78:	3c031009 	lui	v1,0x1009
10001d7c:	2442bbc4 	addiu	v0,v0,-17468
10001d80:	2463bc00 	addiu	v1,v1,-17408
10001d84:	a4400000 	sh	zero,0(v0)
10001d88:	24420002 	addiu	v0,v0,2
10001d8c:	1443fffd 	bne	v0,v1,10001d84 <ni_init+0x54>
10001d90:	00000000 	nop
10001d94:	0800076c 	j	10001db0 <ni_init+0x80>
10001d98:	24100040 	li	s0,64
10001d9c:	8e24bca8 	lw	a0,-17240(s1)
10001da0:	0c00082a 	jal	100020a8 <hf_queue_addtail>
10001da4:	00402825 	move	a1,v0
10001da8:	1200000e 	beqz	s0,10001de4 <ni_init+0xb4>
10001dac:	00000000 	nop
10001db0:	0c000615 	jal	10001854 <hf_malloc>
10001db4:	24040080 	li	a0,128
10001db8:	1440fff8 	bnez	v0,10001d9c <ni_init+0x6c>
10001dbc:	2610ffff 	addiu	s0,s0,-1
10001dc0:	24040004 	li	a0,4
10001dc4:	0c000797 	jal	10001e5c <panic>
10001dc8:	afa20010 	sw	v0,16(sp)
10001dcc:	8fa20010 	lw	v0,16(sp)
10001dd0:	8e24bca8 	lw	a0,-17240(s1)
10001dd4:	0c00082a 	jal	100020a8 <hf_queue_addtail>
10001dd8:	00402825 	move	a1,v0
10001ddc:	1600fff4 	bnez	s0,10001db0 <ni_init+0x80>
10001de0:	00000000 	nop
10001de4:	0c0006a4 	jal	10001a90 <ni_flush>
10001de8:	24040040 	li	a0,64
10001dec:	14400008 	bnez	v0,10001e10 <ni_init+0xe0>
10001df0:	00000000 	nop
10001df4:	8fbf0024 	lw	ra,36(sp)
10001df8:	8fb10020 	lw	s1,32(sp)
10001dfc:	8fb0001c 	lw	s0,28(sp)
10001e00:	3c041000 	lui	a0,0x1000
10001e04:	24843178 	addiu	a0,a0,12664
10001e08:	080001f9 	j	100007e4 <kprintf>
10001e0c:	27bd0028 	addiu	sp,sp,40
10001e10:	3c051000 	lui	a1,0x1000
10001e14:	24040100 	li	a0,256
10001e18:	0c000179 	jal	100005e4 <_irq_register>
10001e1c:	24a51b7c 	addiu	a1,a1,7036
10001e20:	0c0001a6 	jal	10000698 <_irq_mask_set>
10001e24:	24040100 	li	a0,256
10001e28:	8fbf0024 	lw	ra,36(sp)
10001e2c:	8fb10020 	lw	s1,32(sp)
10001e30:	8fb0001c 	lw	s0,28(sp)
10001e34:	3c041000 	lui	a0,0x1000
10001e38:	24843158 	addiu	a0,a0,12632
10001e3c:	080001f9 	j	100007e4 <kprintf>
10001e40:	27bd0028 	addiu	sp,sp,40
10001e44:	0c000797 	jal	10001e5c <panic>
10001e48:	24040004 	li	a0,4
10001e4c:	0800075e 	j	10001d78 <ni_init+0x48>
10001e50:	3c021009 	lui	v0,0x1009

10001e54 <hf_cpuid>:
10001e54:	03e00008 	jr	ra
10001e58:	24020009 	li	v0,9

10001e5c <panic>:
10001e5c:	27bdffe8 	addiu	sp,sp,-24
10001e60:	afb00010 	sw	s0,16(sp)
10001e64:	00808025 	move	s0,a0
10001e68:	afbf0014 	sw	ra,20(sp)
10001e6c:	0c00007b 	jal	100001ec <_interrupt_set>
10001e70:	00002025 	move	a0,zero
10001e74:	3c021009 	lui	v0,0x1009
10001e78:	9445bc78 	lhu	a1,-17288(v0)
10001e7c:	3c041000 	lui	a0,0x1000
10001e80:	0c0001f9 	jal	100007e4 <kprintf>
10001e84:	24843198 	addiu	a0,a0,12696
10001e88:	2e02000f 	sltiu	v0,s0,15
10001e8c:	10400008 	beqz	v0,10001eb0 <panic+0x54>
10001e90:	3c021000 	lui	v0,0x1000
10001e94:	00108080 	sll	s0,s0,0x2
10001e98:	24423354 	addiu	v0,v0,13140
10001e9c:	00501021 	addu	v0,v0,s0
10001ea0:	8c420000 	lw	v0,0(v0)
10001ea4:	00000000 	nop
10001ea8:	00400008 	jr	v0
10001eac:	00000000 	nop
10001eb0:	3c041000 	lui	a0,0x1000
10001eb4:	0c0001f9 	jal	100007e4 <kprintf>
10001eb8:	24843330 	addiu	a0,a0,13104
10001ebc:	3c041000 	lui	a0,0x1000
10001ec0:	0c000536 	jal	100014d8 <printf>
10001ec4:	24843340 	addiu	a0,a0,13120
10001ec8:	0c000175 	jal	100005d4 <_panic>
10001ecc:	00000000 	nop
10001ed0:	080007b4 	j	10001ed0 <panic+0x74>
10001ed4:	00000000 	nop
10001ed8:	3c041000 	lui	a0,0x1000
10001edc:	0c0001f9 	jal	100007e4 <kprintf>
10001ee0:	2484331c 	addiu	a0,a0,13084
10001ee4:	080007b0 	j	10001ec0 <panic+0x64>
10001ee8:	3c041000 	lui	a0,0x1000
10001eec:	3c041000 	lui	a0,0x1000
10001ef0:	0c0001f9 	jal	100007e4 <kprintf>
10001ef4:	24843300 	addiu	a0,a0,13056
10001ef8:	080007b0 	j	10001ec0 <panic+0x64>
10001efc:	3c041000 	lui	a0,0x1000
10001f00:	3c041000 	lui	a0,0x1000
10001f04:	0c0001f9 	jal	100007e4 <kprintf>
10001f08:	248432dc 	addiu	a0,a0,13020
10001f0c:	080007b0 	j	10001ec0 <panic+0x64>
10001f10:	3c041000 	lui	a0,0x1000
10001f14:	3c041000 	lui	a0,0x1000
10001f18:	0c0001f9 	jal	100007e4 <kprintf>
10001f1c:	248432bc 	addiu	a0,a0,12988
10001f20:	080007b0 	j	10001ec0 <panic+0x64>
10001f24:	3c041000 	lui	a0,0x1000
10001f28:	3c041000 	lui	a0,0x1000
10001f2c:	0c0001f9 	jal	100007e4 <kprintf>
10001f30:	2484329c 	addiu	a0,a0,12956
10001f34:	080007b0 	j	10001ec0 <panic+0x64>
10001f38:	3c041000 	lui	a0,0x1000
10001f3c:	3c041000 	lui	a0,0x1000
10001f40:	0c0001f9 	jal	100007e4 <kprintf>
10001f44:	24843284 	addiu	a0,a0,12932
10001f48:	080007b0 	j	10001ec0 <panic+0x64>
10001f4c:	3c041000 	lui	a0,0x1000
10001f50:	3c041000 	lui	a0,0x1000
10001f54:	0c0001f9 	jal	100007e4 <kprintf>
10001f58:	24843250 	addiu	a0,a0,12880
10001f5c:	080007b0 	j	10001ec0 <panic+0x64>
10001f60:	3c041000 	lui	a0,0x1000
10001f64:	3c041000 	lui	a0,0x1000
10001f68:	0c0001f9 	jal	100007e4 <kprintf>
10001f6c:	24843268 	addiu	a0,a0,12904
10001f70:	080007b0 	j	10001ec0 <panic+0x64>
10001f74:	3c041000 	lui	a0,0x1000
10001f78:	3c041000 	lui	a0,0x1000
10001f7c:	0c0001f9 	jal	100007e4 <kprintf>
10001f80:	24843238 	addiu	a0,a0,12856
10001f84:	080007b0 	j	10001ec0 <panic+0x64>
10001f88:	3c041000 	lui	a0,0x1000
10001f8c:	3c041000 	lui	a0,0x1000
10001f90:	0c0001f9 	jal	100007e4 <kprintf>
10001f94:	24843228 	addiu	a0,a0,12840
10001f98:	080007b0 	j	10001ec0 <panic+0x64>
10001f9c:	3c041000 	lui	a0,0x1000
10001fa0:	3c041000 	lui	a0,0x1000
10001fa4:	0c0001f9 	jal	100007e4 <kprintf>
10001fa8:	24843208 	addiu	a0,a0,12808
10001fac:	080007b0 	j	10001ec0 <panic+0x64>
10001fb0:	3c041000 	lui	a0,0x1000
10001fb4:	3c041000 	lui	a0,0x1000
10001fb8:	0c0001f9 	jal	100007e4 <kprintf>
10001fbc:	248431e4 	addiu	a0,a0,12772
10001fc0:	080007b0 	j	10001ec0 <panic+0x64>
10001fc4:	3c041000 	lui	a0,0x1000
10001fc8:	3c041000 	lui	a0,0x1000
10001fcc:	0c0001f9 	jal	100007e4 <kprintf>
10001fd0:	248431c8 	addiu	a0,a0,12744
10001fd4:	080007b0 	j	10001ec0 <panic+0x64>
10001fd8:	3c041000 	lui	a0,0x1000
10001fdc:	3c041000 	lui	a0,0x1000
10001fe0:	0c0001f9 	jal	100007e4 <kprintf>
10001fe4:	248431b4 	addiu	a0,a0,12724
10001fe8:	080007b0 	j	10001ec0 <panic+0x64>
10001fec:	3c041000 	lui	a0,0x1000
10001ff0:	3c041000 	lui	a0,0x1000
10001ff4:	0c0001f9 	jal	100007e4 <kprintf>
10001ff8:	248431f4 	addiu	a0,a0,12788
10001ffc:	080007b0 	j	10001ec0 <panic+0x64>
10002000:	3c041000 	lui	a0,0x1000

10002004 <hf_schedlock>:
10002004:	14800004 	bnez	a0,10002018 <hf_schedlock+0x14>
10002008:	24030001 	li	v1,1
1000200c:	3c021009 	lui	v0,0x1009
10002010:	03e00008 	jr	ra
10002014:	a443bc94 	sh	v1,-17260(v0)
10002018:	3c021009 	lui	v0,0x1009
1000201c:	03e00008 	jr	ra
10002020:	a440bc94 	sh	zero,-17260(v0)

10002024 <hf_queue_create>:
10002024:	27bdffe0 	addiu	sp,sp,-32
10002028:	afb10018 	sw	s1,24(sp)
1000202c:	00808825 	move	s1,a0
10002030:	afb00014 	sw	s0,20(sp)
10002034:	afbf001c 	sw	ra,28(sp)
10002038:	0c000615 	jal	10001854 <hf_malloc>
1000203c:	24040014 	li	a0,20
10002040:	10400010 	beqz	v0,10002084 <hf_queue_create+0x60>
10002044:	00408025 	move	s0,v0
10002048:	26240001 	addiu	a0,s1,1
1000204c:	ac440000 	sw	a0,0(v0)
10002050:	0c000615 	jal	10001854 <hf_malloc>
10002054:	00042080 	sll	a0,a0,0x2
10002058:	1040000c 	beqz	v0,1000208c <hf_queue_create+0x68>
1000205c:	ae020010 	sw	v0,16(s0)
10002060:	ae00000c 	sw	zero,12(s0)
10002064:	ae000008 	sw	zero,8(s0)
10002068:	ae000004 	sw	zero,4(s0)
1000206c:	02001025 	move	v0,s0
10002070:	8fbf001c 	lw	ra,28(sp)
10002074:	8fb10018 	lw	s1,24(sp)
10002078:	8fb00014 	lw	s0,20(sp)
1000207c:	03e00008 	jr	ra
10002080:	27bd0020 	addiu	sp,sp,32
10002084:	0800081c 	j	10002070 <hf_queue_create+0x4c>
10002088:	00001025 	move	v0,zero
1000208c:	0c0005fa 	jal	100017e8 <hf_free>
10002090:	02002025 	move	a0,s0
10002094:	0800081c 	j	10002070 <hf_queue_create+0x4c>
10002098:	00001025 	move	v0,zero

1000209c <hf_queue_count>:
1000209c:	8c820004 	lw	v0,4(a0)
100020a0:	03e00008 	jr	ra
100020a4:	00000000 	nop

100020a8 <hf_queue_addtail>:
100020a8:	8c820000 	lw	v0,0(a0)
100020ac:	00000000 	nop
100020b0:	10400011 	beqz	v0,100020f8 <hf_queue_addtail+0x50>
100020b4:	00000000 	nop
100020b8:	8c86000c 	lw	a2,12(a0)
100020bc:	8c870008 	lw	a3,8(a0)
100020c0:	24c30001 	addiu	v1,a2,1
100020c4:	0062001a 	div	zero,v1,v0
100020c8:	00001810 	mfhi	v1
100020cc:	10e3000a 	beq	a3,v1,100020f8 <hf_queue_addtail+0x50>
100020d0:	00063080 	sll	a2,a2,0x2
100020d4:	8c820010 	lw	v0,16(a0)
100020d8:	8c870004 	lw	a3,4(a0)
100020dc:	00463021 	addu	a2,v0,a2
100020e0:	24e70001 	addiu	a3,a3,1
100020e4:	acc50000 	sw	a1,0(a2)
100020e8:	00001025 	move	v0,zero
100020ec:	ac83000c 	sw	v1,12(a0)
100020f0:	03e00008 	jr	ra
100020f4:	ac870004 	sw	a3,4(a0)
100020f8:	03e00008 	jr	ra
100020fc:	2402ffff 	li	v0,-1

10002100 <hf_queue_remhead>:
10002100:	8c820000 	lw	v0,0(a0)
10002104:	00000000 	nop
10002108:	10400011 	beqz	v0,10002150 <hf_queue_remhead+0x50>
1000210c:	00000000 	nop
10002110:	8c850008 	lw	a1,8(a0)
10002114:	8c83000c 	lw	v1,12(a0)
10002118:	00000000 	nop
1000211c:	10a3000c 	beq	a1,v1,10002150 <hf_queue_remhead+0x50>
10002120:	24a30001 	addiu	v1,a1,1
10002124:	0062001a 	div	zero,v1,v0
10002128:	8c820010 	lw	v0,16(a0)
1000212c:	8c860004 	lw	a2,4(a0)
10002130:	00052880 	sll	a1,a1,0x2
10002134:	00452821 	addu	a1,v0,a1
10002138:	8ca20000 	lw	v0,0(a1)
1000213c:	24c5ffff 	addiu	a1,a2,-1
10002140:	ac850004 	sw	a1,4(a0)
10002144:	00001810 	mfhi	v1
10002148:	03e00008 	jr	ra
1000214c:	ac830008 	sw	v1,8(a0)
10002150:	03e00008 	jr	ra
10002154:	00001025 	move	v0,zero

10002158 <hf_queue_get>:
10002158:	8c820000 	lw	v0,0(a0)
1000215c:	00000000 	nop
10002160:	10400013 	beqz	v0,100021b0 <hf_queue_get+0x58>
10002164:	00000000 	nop
10002168:	8c830004 	lw	v1,4(a0)
1000216c:	00000000 	nop
10002170:	00a3182a 	slt	v1,a1,v1
10002174:	1060000e 	beqz	v1,100021b0 <hf_queue_get+0x58>
10002178:	00000000 	nop
1000217c:	8c830008 	lw	v1,8(a0)
10002180:	8c86000c 	lw	a2,12(a0)
10002184:	00000000 	nop
10002188:	10660009 	beq	v1,a2,100021b0 <hf_queue_get+0x58>
1000218c:	00a32821 	addu	a1,a1,v1
10002190:	00a2001a 	div	zero,a1,v0
10002194:	8c840010 	lw	a0,16(a0)
10002198:	00001810 	mfhi	v1
1000219c:	00031080 	sll	v0,v1,0x2
100021a0:	00821021 	addu	v0,a0,v0
100021a4:	8c420000 	lw	v0,0(v0)
100021a8:	03e00008 	jr	ra
100021ac:	00000000 	nop
100021b0:	03e00008 	jr	ra
100021b4:	00001025 	move	v0,zero

100021b8 <hf_queue_swap>:
100021b8:	8c830000 	lw	v1,0(a0)
100021bc:	00000000 	nop
100021c0:	10600022 	beqz	v1,1000224c <hf_queue_swap+0x94>
100021c4:	00000000 	nop
100021c8:	8c820004 	lw	v0,4(a0)
100021cc:	00000000 	nop
100021d0:	00a2382a 	slt	a3,a1,v0
100021d4:	10e0001d 	beqz	a3,1000224c <hf_queue_swap+0x94>
100021d8:	00000000 	nop
100021dc:	00c2102a 	slt	v0,a2,v0
100021e0:	1040001a 	beqz	v0,1000224c <hf_queue_swap+0x94>
100021e4:	00000000 	nop
100021e8:	8c870008 	lw	a3,8(a0)
100021ec:	8c82000c 	lw	v0,12(a0)
100021f0:	00000000 	nop
100021f4:	10e20015 	beq	a3,v0,1000224c <hf_queue_swap+0x94>
100021f8:	00c73021 	addu	a2,a2,a3
100021fc:	00c3001a 	div	zero,a2,v1
10002200:	00a72821 	addu	a1,a1,a3
10002204:	8c880010 	lw	t0,16(a0)
10002208:	00001025 	move	v0,zero
1000220c:	00003010 	mfhi	a2
10002210:	00063080 	sll	a2,a2,0x2
10002214:	00000000 	nop
10002218:	00a3001a 	div	zero,a1,v1
1000221c:	01061821 	addu	v1,t0,a2
10002220:	8c690000 	lw	t1,0(v1)
10002224:	00003810 	mfhi	a3
10002228:	00071880 	sll	v1,a3,0x2
1000222c:	01031821 	addu	v1,t0,v1
10002230:	8c650000 	lw	a1,0(v1)
10002234:	ac690000 	sw	t1,0(v1)
10002238:	8c830010 	lw	v1,16(a0)
1000223c:	00000000 	nop
10002240:	00663021 	addu	a2,v1,a2
10002244:	03e00008 	jr	ra
10002248:	acc50000 	sw	a1,0(a2)
1000224c:	03e00008 	jr	ra
10002250:	2402ffff 	li	v0,-1

10002254 <run_queue_next>:
10002254:	27bdffe0 	addiu	sp,sp,-32
10002258:	afb00014 	sw	s0,20(sp)
1000225c:	3c101009 	lui	s0,0x1009
10002260:	8e04bc8c 	lw	a0,-17268(s0)
10002264:	afb10018 	sw	s1,24(sp)
10002268:	afbf001c 	sw	ra,28(sp)
1000226c:	0c000840 	jal	10002100 <hf_queue_remhead>
10002270:	3c111009 	lui	s1,0x1009
10002274:	00402825 	move	a1,v0
10002278:	10400010 	beqz	v0,100022bc <run_queue_next+0x68>
1000227c:	ae22bc7c 	sw	v0,-17284(s1)
10002280:	8e04bc8c 	lw	a0,-17268(s0)
10002284:	0c00082a 	jal	100020a8 <hf_queue_addtail>
10002288:	00000000 	nop
1000228c:	14400006 	bnez	v0,100022a8 <run_queue_next+0x54>
10002290:	24040009 	li	a0,9
10002294:	8fbf001c 	lw	ra,28(sp)
10002298:	8fb10018 	lw	s1,24(sp)
1000229c:	8fb00014 	lw	s0,20(sp)
100022a0:	03e00008 	jr	ra
100022a4:	27bd0020 	addiu	sp,sp,32
100022a8:	8fbf001c 	lw	ra,28(sp)
100022ac:	8fb10018 	lw	s1,24(sp)
100022b0:	8fb00014 	lw	s0,20(sp)
100022b4:	08000797 	j	10001e5c <panic>
100022b8:	27bd0020 	addiu	sp,sp,32
100022bc:	0c000797 	jal	10001e5c <panic>
100022c0:	24040005 	li	a0,5
100022c4:	8e25bc7c 	lw	a1,-17284(s1)
100022c8:	080008a0 	j	10002280 <run_queue_next+0x2c>
100022cc:	00000000 	nop

100022d0 <rt_queue_next>:
100022d0:	27bdffe0 	addiu	sp,sp,-32
100022d4:	afb00014 	sw	s0,20(sp)
100022d8:	3c101009 	lui	s0,0x1009
100022dc:	8e04bc90 	lw	a0,-17264(s0)
100022e0:	afb10018 	sw	s1,24(sp)
100022e4:	afbf001c 	sw	ra,28(sp)
100022e8:	0c000840 	jal	10002100 <hf_queue_remhead>
100022ec:	3c111009 	lui	s1,0x1009
100022f0:	00402825 	move	a1,v0
100022f4:	10400010 	beqz	v0,10002338 <rt_queue_next+0x68>
100022f8:	ae22bc7c 	sw	v0,-17284(s1)
100022fc:	8e04bc90 	lw	a0,-17264(s0)
10002300:	0c00082a 	jal	100020a8 <hf_queue_addtail>
10002304:	00000000 	nop
10002308:	14400006 	bnez	v0,10002324 <rt_queue_next+0x54>
1000230c:	2404000b 	li	a0,11
10002310:	8fbf001c 	lw	ra,28(sp)
10002314:	8fb10018 	lw	s1,24(sp)
10002318:	8fb00014 	lw	s0,20(sp)
1000231c:	03e00008 	jr	ra
10002320:	27bd0020 	addiu	sp,sp,32
10002324:	8fbf001c 	lw	ra,28(sp)
10002328:	8fb10018 	lw	s1,24(sp)
1000232c:	8fb00014 	lw	s0,20(sp)
10002330:	08000797 	j	10001e5c <panic>
10002334:	27bd0020 	addiu	sp,sp,32
10002338:	0c000797 	jal	10001e5c <panic>
1000233c:	24040006 	li	a0,6
10002340:	8e25bc7c 	lw	a1,-17284(s1)
10002344:	080008bf 	j	100022fc <rt_queue_next+0x2c>
10002348:	00000000 	nop

1000234c <dispatch_isr>:
1000234c:	27bdffc8 	addiu	sp,sp,-56
10002350:	afbf0034 	sw	ra,52(sp)
10002354:	afb60030 	sw	s6,48(sp)
10002358:	afb5002c 	sw	s5,44(sp)
1000235c:	afb40028 	sw	s4,40(sp)
10002360:	afb30024 	sw	s3,36(sp)
10002364:	afb20020 	sw	s2,32(sp)
10002368:	afb1001c 	sw	s1,28(sp)
1000236c:	0c000162 	jal	10000588 <_timer_reset>
10002370:	afb00018 	sw	s0,24(sp)
10002374:	3c021009 	lui	v0,0x1009
10002378:	9442bc94 	lhu	v0,-17260(v0)
1000237c:	00000000 	nop
10002380:	1440000b 	bnez	v0,100023b0 <dispatch_isr+0x64>
10002384:	3c141009 	lui	s4,0x1009
10002388:	8fbf0034 	lw	ra,52(sp)
1000238c:	8fb60030 	lw	s6,48(sp)
10002390:	8fb5002c 	lw	s5,44(sp)
10002394:	8fb40028 	lw	s4,40(sp)
10002398:	8fb30024 	lw	s3,36(sp)
1000239c:	8fb20020 	lw	s2,32(sp)
100023a0:	8fb1001c 	lw	s1,28(sp)
100023a4:	8fb00018 	lw	s0,24(sp)
100023a8:	03e00008 	jr	ra
100023ac:	27bd0038 	addiu	sp,sp,56
100023b0:	9684bc78 	lhu	a0,-17288(s4)
100023b4:	3c131009 	lui	s3,0x1009
100023b8:	00041880 	sll	v1,a0,0x2
100023bc:	00041100 	sll	v0,a0,0x4
100023c0:	00621021 	addu	v0,v1,v0
100023c4:	00441023 	subu	v0,v0,a0
100023c8:	000210c0 	sll	v0,v0,0x3
100023cc:	3c031001 	lui	v1,0x1001
100023d0:	246308bc 	addiu	v1,v1,2236
100023d4:	24440038 	addiu	a0,v0,56
100023d8:	00642021 	addu	a0,v1,a0
100023dc:	00621021 	addu	v0,v1,v0
100023e0:	0c00008f 	jal	1000023c <_context_save>
100023e4:	ae62bc7c 	sw	v0,-17284(s3)
100023e8:	1440ffe7 	bnez	v0,10002388 <dispatch_isr+0x3c>
100023ec:	24030002 	li	v1,2
100023f0:	8e62bc7c 	lw	v0,-17284(s3)
100023f4:	00000000 	nop
100023f8:	90440016 	lbu	a0,22(v0)
100023fc:	00000000 	nop
10002400:	10830059 	beq	a0,v1,10002568 <dispatch_isr+0x21c>
10002404:	24030001 	li	v1,1
10002408:	8c42008c 	lw	v0,140(v0)
1000240c:	00000000 	nop
10002410:	8c430000 	lw	v1,0(v0)
10002414:	3c02b00b 	lui	v0,0xb00b
10002418:	3442b00b 	ori	v0,v0,0xb00b
1000241c:	10620004 	beq	v1,v0,10002430 <dispatch_isr+0xe4>
10002420:	3c021009 	lui	v0,0x1009
10002424:	0c000797 	jal	10001e5c <panic>
10002428:	24040002 	li	a0,2
1000242c:	3c021009 	lui	v0,0x1009
10002430:	9442bc84 	lhu	v0,-17276(v0)
10002434:	00000000 	nop
10002438:	10400041 	beqz	v0,10002540 <dispatch_isr+0x1f4>
1000243c:	24040003 	li	a0,3
10002440:	3c111009 	lui	s1,0x1009
10002444:	8e24bc98 	lw	a0,-17256(s1)
10002448:	0c000827 	jal	1000209c <hf_queue_count>
1000244c:	00008025 	move	s0,zero
10002450:	18400023 	blez	v0,100024e0 <dispatch_isr+0x194>
10002454:	00409025 	move	s2,v0
10002458:	3c161009 	lui	s6,0x1009
1000245c:	08000921 	j	10002484 <dispatch_isr+0x138>
10002460:	3c151009 	lui	s5,0x1009
10002464:	8ea4bc90 	lw	a0,-17264(s5)
10002468:	0c00082a 	jal	100020a8 <hf_queue_addtail>
1000246c:	00000000 	nop
10002470:	14400048 	bnez	v0,10002594 <dispatch_isr+0x248>
10002474:	00000000 	nop
10002478:	26100001 	addiu	s0,s0,1
1000247c:	12120018 	beq	s0,s2,100024e0 <dispatch_isr+0x194>
10002480:	00000000 	nop
10002484:	8e24bc98 	lw	a0,-17256(s1)
10002488:	0c000840 	jal	10002100 <hf_queue_remhead>
1000248c:	00000000 	nop
10002490:	10400044 	beqz	v0,100025a4 <dispatch_isr+0x258>
10002494:	00402825 	move	a1,v0
10002498:	8ca3001c 	lw	v1,28(a1)
1000249c:	00000000 	nop
100024a0:	2463ffff 	addiu	v1,v1,-1
100024a4:	14600032 	bnez	v1,10002570 <dispatch_isr+0x224>
100024a8:	aca3001c 	sw	v1,28(a1)
100024ac:	94a2002c 	lhu	v0,44(a1)
100024b0:	00000000 	nop
100024b4:	1440ffeb 	bnez	v0,10002464 <dispatch_isr+0x118>
100024b8:	00000000 	nop
100024bc:	8ec4bc8c 	lw	a0,-17268(s6)
100024c0:	0c00082a 	jal	100020a8 <hf_queue_addtail>
100024c4:	00000000 	nop
100024c8:	1040ffeb 	beqz	v0,10002478 <dispatch_isr+0x12c>
100024cc:	24040009 	li	a0,9
100024d0:	0c000797 	jal	10001e5c <panic>
100024d4:	26100001 	addiu	s0,s0,1
100024d8:	1612ffea 	bne	s0,s2,10002484 <dispatch_isr+0x138>
100024dc:	00000000 	nop
100024e0:	3c101009 	lui	s0,0x1009
100024e4:	8e02bbac 	lw	v0,-17492(s0)
100024e8:	00000000 	nop
100024ec:	0040f809 	jalr	v0
100024f0:	2610bbac 	addiu	s0,s0,-17492
100024f4:	3042ffff 	andi	v0,v0,0xffff
100024f8:	14400007 	bnez	v0,10002518 <dispatch_isr+0x1cc>
100024fc:	a682bc78 	sh	v0,-17288(s4)
10002500:	8e020004 	lw	v0,4(s0)
10002504:	00000000 	nop
10002508:	0040f809 	jalr	v0
1000250c:	00000000 	nop
10002510:	3c031009 	lui	v1,0x1009
10002514:	a462bc78 	sh	v0,-17288(v1)
10002518:	8e63bc7c 	lw	v1,-17284(s3)
1000251c:	8e02000c 	lw	v0,12(s0)
10002520:	24050002 	li	a1,2
10002524:	24420001 	addiu	v0,v0,1
10002528:	24640038 	addiu	a0,v1,56
1000252c:	a0650016 	sb	a1,22(v1)
10002530:	24050001 	li	a1,1
10002534:	0c00009d 	jal	10000274 <_context_restore>
10002538:	ae02000c 	sw	v0,12(s0)
1000253c:	240400ff 	li	a0,255
10002540:	8fbf0034 	lw	ra,52(sp)
10002544:	8fb60030 	lw	s6,48(sp)
10002548:	8fb5002c 	lw	s5,44(sp)
1000254c:	8fb40028 	lw	s4,40(sp)
10002550:	8fb30024 	lw	s3,36(sp)
10002554:	8fb20020 	lw	s2,32(sp)
10002558:	8fb1001c 	lw	s1,28(sp)
1000255c:	8fb00018 	lw	s0,24(sp)
10002560:	08000797 	j	10001e5c <panic>
10002564:	27bd0038 	addiu	sp,sp,56
10002568:	08000902 	j	10002408 <dispatch_isr+0xbc>
1000256c:	a0430016 	sb	v1,22(v0)
10002570:	8e24bc98 	lw	a0,-17256(s1)
10002574:	0c00082a 	jal	100020a8 <hf_queue_addtail>
10002578:	00000000 	nop
1000257c:	1040ffbe 	beqz	v0,10002478 <dispatch_isr+0x12c>
10002580:	00000000 	nop
10002584:	0c000797 	jal	10001e5c <panic>
10002588:	2404000a 	li	a0,10
1000258c:	0800091f 	j	1000247c <dispatch_isr+0x130>
10002590:	26100001 	addiu	s0,s0,1
10002594:	0c000797 	jal	10001e5c <panic>
10002598:	2404000b 	li	a0,11
1000259c:	0800091f 	j	1000247c <dispatch_isr+0x130>
100025a0:	26100001 	addiu	s0,s0,1
100025a4:	24040007 	li	a0,7
100025a8:	0c000797 	jal	10001e5c <panic>
100025ac:	afa20010 	sw	v0,16(sp)
100025b0:	8fa50010 	lw	a1,16(sp)
100025b4:	08000926 	j	10002498 <dispatch_isr+0x14c>
100025b8:	00000000 	nop

100025bc <sched_priorityrr>:
100025bc:	3c021009 	lui	v0,0x1009
100025c0:	8c44bc8c 	lw	a0,-17268(v0)
100025c4:	27bdffd0 	addiu	sp,sp,-48
100025c8:	afb2001c 	sw	s2,28(sp)
100025cc:	afbf002c 	sw	ra,44(sp)
100025d0:	afb50028 	sw	s5,40(sp)
100025d4:	afb40024 	sw	s4,36(sp)
100025d8:	afb30020 	sw	s3,32(sp)
100025dc:	afb10018 	sw	s1,24(sp)
100025e0:	0c000827 	jal	1000209c <hf_queue_count>
100025e4:	afb00014 	sw	s0,20(sp)
100025e8:	10400046 	beqz	v0,10002704 <sched_priorityrr+0x148>
100025ec:	00409025 	move	s2,v0
100025f0:	0c000895 	jal	10002254 <run_queue_next>
100025f4:	00000000 	nop
100025f8:	1a400046 	blez	s2,10002714 <sched_priorityrr+0x158>
100025fc:	241400ff 	li	s4,255
10002600:	00008825 	move	s1,zero
10002604:	00008025 	move	s0,zero
10002608:	3c131009 	lui	s3,0x1009
1000260c:	24150003 	li	s5,3
10002610:	0c000895 	jal	10002254 <run_queue_next>
10002614:	26100001 	addiu	s0,s0,1
10002618:	8e63bc7c 	lw	v1,-17284(s3)
1000261c:	00000000 	nop
10002620:	90640019 	lbu	a0,25(v1)
10002624:	00000000 	nop
10002628:	10800025 	beqz	a0,100026c0 <sched_priorityrr+0x104>
1000262c:	00000000 	nop
10002630:	90620016 	lbu	v0,22(v1)
10002634:	00000000 	nop
10002638:	1455002f 	bne	v0,s5,100026f8 <sched_priorityrr+0x13c>
1000263c:	00000000 	nop
10002640:	1612fff3 	bne	s0,s2,10002610 <sched_priorityrr+0x54>
10002644:	00000000 	nop
10002648:	00008025 	move	s0,zero
1000264c:	0c000895 	jal	10002254 <run_queue_next>
10002650:	26100001 	addiu	s0,s0,1
10002654:	8e62bc7c 	lw	v0,-17284(s3)
10002658:	00000000 	nop
1000265c:	12220006 	beq	s1,v0,10002678 <sched_priorityrr+0xbc>
10002660:	0212202a 	slt	a0,s0,s2
10002664:	90430018 	lbu	v1,24(v0)
10002668:	92250018 	lbu	a1,24(s1)
1000266c:	00000000 	nop
10002670:	00651823 	subu	v1,v1,a1
10002674:	a0430018 	sb	v1,24(v0)
10002678:	1480fff4 	bnez	a0,1000264c <sched_priorityrr+0x90>
1000267c:	00000000 	nop
10002680:	92220017 	lbu	v0,23(s1)
10002684:	ae71bc7c 	sw	s1,-17284(s3)
10002688:	a2220018 	sb	v0,24(s1)
1000268c:	8e230024 	lw	v1,36(s1)
10002690:	8fbf002c 	lw	ra,44(sp)
10002694:	24630001 	addiu	v1,v1,1
10002698:	96220000 	lhu	v0,0(s1)
1000269c:	ae230024 	sw	v1,36(s1)
100026a0:	8fb50028 	lw	s5,40(sp)
100026a4:	8fb40024 	lw	s4,36(sp)
100026a8:	8fb30020 	lw	s3,32(sp)
100026ac:	8fb2001c 	lw	s2,28(sp)
100026b0:	8fb10018 	lw	s1,24(sp)
100026b4:	8fb00014 	lw	s0,20(sp)
100026b8:	03e00008 	jr	ra
100026bc:	27bd0030 	addiu	sp,sp,48
100026c0:	90640018 	lbu	a0,24(v1)
100026c4:	00000000 	nop
100026c8:	0094102b 	sltu	v0,a0,s4
100026cc:	1040ffdc 	beqz	v0,10002640 <sched_priorityrr+0x84>
100026d0:	00000000 	nop
100026d4:	90620016 	lbu	v0,22(v1)
100026d8:	00000000 	nop
100026dc:	1055ffd8 	beq	v0,s5,10002640 <sched_priorityrr+0x84>
100026e0:	00000000 	nop
100026e4:	00608825 	move	s1,v1
100026e8:	1612ffc9 	bne	s0,s2,10002610 <sched_priorityrr+0x54>
100026ec:	0080a025 	move	s4,a0
100026f0:	08000993 	j	1000264c <sched_priorityrr+0x90>
100026f4:	00008025 	move	s0,zero
100026f8:	00608825 	move	s1,v1
100026fc:	080009a3 	j	1000268c <sched_priorityrr+0xd0>
10002700:	a0600019 	sb	zero,25(v1)
10002704:	0c000797 	jal	10001e5c <panic>
10002708:	24040005 	li	a0,5
1000270c:	0c000895 	jal	10002254 <run_queue_next>
10002710:	00000000 	nop
10002714:	00008825 	move	s1,zero
10002718:	080009a0 	j	10002680 <sched_priorityrr+0xc4>
1000271c:	3c131009 	lui	s3,0x1009

10002720 <sched_edf>:
10002720:	27bdffc8 	addiu	sp,sp,-56
10002724:	afb10018 	sw	s1,24(sp)
10002728:	3c111009 	lui	s1,0x1009
1000272c:	8e24bc90 	lw	a0,-17264(s1)
10002730:	afb30020 	sw	s3,32(sp)
10002734:	afbf0034 	sw	ra,52(sp)
10002738:	afb70030 	sw	s7,48(sp)
1000273c:	afb6002c 	sw	s6,44(sp)
10002740:	afb50028 	sw	s5,40(sp)
10002744:	afb40024 	sw	s4,36(sp)
10002748:	afb2001c 	sw	s2,28(sp)
1000274c:	0c000827 	jal	1000209c <hf_queue_count>
10002750:	afb00014 	sw	s0,20(sp)
10002754:	10400070 	beqz	v0,10002918 <sched_edf+0x1f8>
10002758:	00409825 	move	s3,v0
1000275c:	2456ffff 	addiu	s6,v0,-1
10002760:	00009025 	move	s2,zero
10002764:	0256102a 	slt	v0,s2,s6
10002768:	10400024 	beqz	v0,100027fc <sched_edf+0xdc>
1000276c:	0220a825 	move	s5,s1
10002770:	26540001 	addiu	s4,s2,1
10002774:	0293102a 	slt	v0,s4,s3
10002778:	14400006 	bnez	v0,10002794 <sched_edf+0x74>
1000277c:	02808025 	move	s0,s4
10002780:	080009fc 	j	100027f0 <sched_edf+0xd0>
10002784:	02809025 	move	s2,s4
10002788:	26100001 	addiu	s0,s0,1
1000278c:	12130017 	beq	s0,s3,100027ec <sched_edf+0xcc>
10002790:	00000000 	nop
10002794:	8e24bc90 	lw	a0,-17264(s1)
10002798:	0c000856 	jal	10002158 <hf_queue_get>
1000279c:	02402825 	move	a1,s2
100027a0:	8e24bc90 	lw	a0,-17264(s1)
100027a4:	02002825 	move	a1,s0
100027a8:	0c000856 	jal	10002158 <hf_queue_get>
100027ac:	0040b825 	move	s7,v0
100027b0:	94440034 	lhu	a0,52(v0)
100027b4:	96e30034 	lhu	v1,52(s7)
100027b8:	00000000 	nop
100027bc:	0083182b 	sltu	v1,a0,v1
100027c0:	1060fff1 	beqz	v1,10002788 <sched_edf+0x68>
100027c4:	02003025 	move	a2,s0
100027c8:	8ea4bc90 	lw	a0,-17264(s5)
100027cc:	0c00086e 	jal	100021b8 <hf_queue_swap>
100027d0:	02402825 	move	a1,s2
100027d4:	1040ffec 	beqz	v0,10002788 <sched_edf+0x68>
100027d8:	2404000c 	li	a0,12
100027dc:	0c000797 	jal	10001e5c <panic>
100027e0:	26100001 	addiu	s0,s0,1
100027e4:	1613ffeb 	bne	s0,s3,10002794 <sched_edf+0x74>
100027e8:	00000000 	nop
100027ec:	02809025 	move	s2,s4
100027f0:	0256102a 	slt	v0,s2,s6
100027f4:	1440ffdf 	bnez	v0,10002774 <sched_edf+0x54>
100027f8:	26540001 	addiu	s4,s2,1
100027fc:	1a600048 	blez	s3,10002920 <sched_edf+0x200>
10002800:	00009025 	move	s2,zero
10002804:	00008025 	move	s0,zero
10002808:	3c111009 	lui	s1,0x1009
1000280c:	24140003 	li	s4,3
10002810:	0c0008b4 	jal	100022d0 <rt_queue_next>
10002814:	26100001 	addiu	s0,s0,1
10002818:	8e23bc7c 	lw	v1,-17284(s1)
1000281c:	00000000 	nop
10002820:	90620016 	lbu	v0,22(v1)
10002824:	00000000 	nop
10002828:	10540009 	beq	v0,s4,10002850 <sched_edf+0x130>
1000282c:	00000000 	nop
10002830:	94620032 	lhu	v0,50(v1)
10002834:	00000000 	nop
10002838:	10400005 	beqz	v0,10002850 <sched_edf+0x130>
1000283c:	00000000 	nop
10002840:	16400003 	bnez	s2,10002850 <sched_edf+0x130>
10002844:	2442ffff 	addiu	v0,v0,-1
10002848:	94720000 	lhu	s2,0(v1)
1000284c:	a4620032 	sh	v0,50(v1)
10002850:	94640034 	lhu	a0,52(v1)
10002854:	00000000 	nop
10002858:	2484ffff 	addiu	a0,a0,-1
1000285c:	3084ffff 	andi	a0,a0,0xffff
10002860:	1480000d 	bnez	a0,10002898 <sched_edf+0x178>
10002864:	a4640034 	sh	a0,52(v1)
10002868:	9464002c 	lhu	a0,44(v1)
1000286c:	94620032 	lhu	v0,50(v1)
10002870:	00000000 	nop
10002874:	10400005 	beqz	v0,1000288c <sched_edf+0x16c>
10002878:	a4640034 	sh	a0,52(v1)
1000287c:	8c620028 	lw	v0,40(v1)
10002880:	00000000 	nop
10002884:	24420001 	addiu	v0,v0,1
10002888:	ac620028 	sw	v0,40(v1)
1000288c:	9462002e 	lhu	v0,46(v1)
10002890:	00000000 	nop
10002894:	a4620032 	sh	v0,50(v1)
10002898:	1613ffdd 	bne	s0,s3,10002810 <sched_edf+0xf0>
1000289c:	00000000 	nop
100028a0:	16400010 	bnez	s2,100028e4 <sched_edf+0x1c4>
100028a4:	00121880 	sll	v1,s2,0x2
100028a8:	3c021001 	lui	v0,0x1001
100028ac:	244208bc 	addiu	v0,v0,2236
100028b0:	ae22bc7c 	sw	v0,-17284(s1)
100028b4:	00001025 	move	v0,zero
100028b8:	8fbf0034 	lw	ra,52(sp)
100028bc:	8fb70030 	lw	s7,48(sp)
100028c0:	8fb6002c 	lw	s6,44(sp)
100028c4:	8fb50028 	lw	s5,40(sp)
100028c8:	8fb40024 	lw	s4,36(sp)
100028cc:	8fb30020 	lw	s3,32(sp)
100028d0:	8fb2001c 	lw	s2,28(sp)
100028d4:	8fb10018 	lw	s1,24(sp)
100028d8:	8fb00014 	lw	s0,20(sp)
100028dc:	03e00008 	jr	ra
100028e0:	27bd0038 	addiu	sp,sp,56
100028e4:	00122100 	sll	a0,s2,0x4
100028e8:	00641821 	addu	v1,v1,a0
100028ec:	00721823 	subu	v1,v1,s2
100028f0:	000320c0 	sll	a0,v1,0x3
100028f4:	3c031001 	lui	v1,0x1001
100028f8:	246308bc 	addiu	v1,v1,2236
100028fc:	00641821 	addu	v1,v1,a0
10002900:	8c640020 	lw	a0,32(v1)
10002904:	02401025 	move	v0,s2
10002908:	24840001 	addiu	a0,a0,1
1000290c:	ae23bc7c 	sw	v1,-17284(s1)
10002910:	08000a2e 	j	100028b8 <sched_edf+0x198>
10002914:	ac640020 	sw	a0,32(v1)
10002918:	08000a2e 	j	100028b8 <sched_edf+0x198>
1000291c:	00001025 	move	v0,zero
10002920:	08000a2a 	j	100028a8 <sched_edf+0x188>
10002924:	3c111009 	lui	s1,0x1009

10002928 <hf_spawn>:
10002928:	27bdffa0 	addiu	sp,sp,-96
1000292c:	afb40048 	sw	s4,72(sp)
10002930:	afb1003c 	sw	s1,60(sp)
10002934:	30d4ffff 	andi	s4,a2,0xffff
10002938:	30b1ffff 	andi	s1,a1,0xffff
1000293c:	0234102b 	sltu	v0,s1,s4
10002940:	afb5004c 	sw	s5,76(sp)
10002944:	afbf005c 	sw	ra,92(sp)
10002948:	afbe0058 	sw	s8,88(sp)
1000294c:	afb70054 	sw	s7,84(sp)
10002950:	afb60050 	sw	s6,80(sp)
10002954:	afb30044 	sw	s3,68(sp)
10002958:	afb20040 	sw	s2,64(sp)
1000295c:	afb00038 	sw	s0,56(sp)
10002960:	30f5ffff 	andi	s5,a3,0xffff
10002964:	afa00028 	sw	zero,40(sp)
10002968:	14400097 	bnez	v0,10002bc8 <hf_spawn+0x2a0>
1000296c:	2402ff9b 	li	v0,-101
10002970:	02b4102b 	sltu	v0,s5,s4
10002974:	144000aa 	bnez	v0,10002c20 <hf_spawn+0x2f8>
10002978:	00808025 	move	s0,a0
1000297c:	0c00007b 	jal	100001ec <_interrupt_set>
10002980:	00002025 	move	a0,zero
10002984:	afa2002c 	sw	v0,44(sp)
10002988:	8fa40028 	lw	a0,40(sp)
1000298c:	3c121001 	lui	s2,0x1001
10002990:	00041880 	sll	v1,a0,0x2
10002994:	00041100 	sll	v0,a0,0x4
10002998:	00621021 	addu	v0,v1,v0
1000299c:	00441023 	subu	v0,v0,a0
100029a0:	000210c0 	sll	v0,v0,0x3
100029a4:	265208bc 	addiu	s2,s2,2236
100029a8:	02421021 	addu	v0,s2,v0
100029ac:	8c420088 	lw	v0,136(v0)
100029b0:	00000000 	nop
100029b4:	14400013 	bnez	v0,10002a04 <hf_spawn+0xdc>
100029b8:	00000000 	nop
100029bc:	08000a86 	j	10002a18 <hf_spawn+0xf0>
100029c0:	00000000 	nop
100029c4:	8fa20028 	lw	v0,40(sp)
100029c8:	00000000 	nop
100029cc:	24420001 	addiu	v0,v0,1
100029d0:	afa20028 	sw	v0,40(sp)
100029d4:	8fa80028 	lw	t0,40(sp)
100029d8:	00000000 	nop
100029dc:	00081880 	sll	v1,t0,0x2
100029e0:	00081100 	sll	v0,t0,0x4
100029e4:	00621021 	addu	v0,v1,v0
100029e8:	00481023 	subu	v0,v0,t0
100029ec:	000210c0 	sll	v0,v0,0x3
100029f0:	02421021 	addu	v0,s2,v0
100029f4:	8c420088 	lw	v0,136(v0)
100029f8:	00000000 	nop
100029fc:	10400006 	beqz	v0,10002a18 <hf_spawn+0xf0>
10002a00:	00000000 	nop
10002a04:	8fa20028 	lw	v0,40(sp)
10002a08:	00000000 	nop
10002a0c:	2c42001e 	sltiu	v0,v0,30
10002a10:	1440ffec 	bnez	v0,100029c4 <hf_spawn+0x9c>
10002a14:	00000000 	nop
10002a18:	8fa30028 	lw	v1,40(sp)
10002a1c:	2402001e 	li	v0,30
10002a20:	10620090 	beq	v1,v0,10002c64 <hf_spawn+0x33c>
10002a24:	3c041000 	lui	a0,0x1000
10002a28:	8fa40028 	lw	a0,40(sp)
10002a2c:	3c1e1009 	lui	s8,0x1009
10002a30:	00041880 	sll	v1,a0,0x2
10002a34:	00041100 	sll	v0,a0,0x4
10002a38:	00621021 	addu	v0,v1,v0
10002a3c:	00441023 	subu	v0,v0,a0
10002a40:	8fa70028 	lw	a3,40(sp)
10002a44:	97c3bc84 	lhu	v1,-17276(s8)
10002a48:	000210c0 	sll	v0,v0,0x3
10002a4c:	02421021 	addu	v0,s2,v0
10002a50:	8fa50070 	lw	a1,112(sp)
10002a54:	3c161009 	lui	s6,0x1009
10002a58:	24060014 	li	a2,20
10002a5c:	24630001 	addiu	v1,v1,1
10002a60:	a4470000 	sh	a3,0(v0)
10002a64:	24440002 	addiu	a0,v0,2
10002a68:	a7c3bc84 	sh	v1,-17276(s8)
10002a6c:	0c00050d 	jal	10001434 <strncpy>
10002a70:	aec2bc7c 	sw	v0,-17284(s6)
10002a74:	8fb70074 	lw	s7,116(sp)
10002a78:	8ed3bc7c 	lw	s3,-17284(s6)
10002a7c:	26f70003 	addiu	s7,s7,3
10002a80:	0017b882 	srl	s7,s7,0x2
10002a84:	0017b880 	sll	s7,s7,0x2
10002a88:	24020064 	li	v0,100
10002a8c:	02e02025 	move	a0,s7
10002a90:	ae700088 	sw	s0,136(s3)
10002a94:	a2600016 	sb	zero,22(s3)
10002a98:	a2620017 	sb	v0,23(s3)
10002a9c:	a2620018 	sb	v0,24(s3)
10002aa0:	ae60001c 	sw	zero,28(s3)
10002aa4:	a671002c 	sh	s1,44(s3)
10002aa8:	a674002e 	sh	s4,46(s3)
10002aac:	a6750030 	sh	s5,48(s3)
10002ab0:	a6740032 	sh	s4,50(s3)
10002ab4:	a6750034 	sh	s5,52(s3)
10002ab8:	ae600020 	sw	zero,32(s3)
10002abc:	ae600024 	sw	zero,36(s3)
10002ac0:	ae600028 	sw	zero,40(s3)
10002ac4:	0c000615 	jal	10001854 <hf_malloc>
10002ac8:	ae770090 	sw	s7,144(s3)
10002acc:	8ec3bc7c 	lw	v1,-17284(s6)
10002ad0:	ae62008c 	sw	v0,140(s3)
10002ad4:	8c65008c 	lw	a1,140(v1)
10002ad8:	94640000 	lhu	a0,0(v1)
10002adc:	24a5fffc 	addiu	a1,a1,-4
10002ae0:	0c000118 	jal	10000460 <_set_task_sp>
10002ae4:	00b72821 	addu	a1,a1,s7
10002ae8:	8ec2bc7c 	lw	v0,-17284(s6)
10002aec:	00000000 	nop
10002af0:	94440000 	lhu	a0,0(v0)
10002af4:	8c450088 	lw	a1,136(v0)
10002af8:	0c00012f 	jal	100004bc <_set_task_tp>
10002afc:	00000000 	nop
10002b00:	8ed0bc7c 	lw	s0,-17284(s6)
10002b04:	00000000 	nop
10002b08:	8e03008c 	lw	v1,140(s0)
10002b0c:	00000000 	nop
10002b10:	10600045 	beqz	v1,10002c28 <hf_spawn+0x300>
10002b14:	3c041000 	lui	a0,0x1000
10002b18:	96130000 	lhu	s3,0(s0)
10002b1c:	3c02b00b 	lui	v0,0xb00b
10002b20:	9605002e 	lhu	a1,46(s0)
10002b24:	3442b00b 	ori	v0,v0,0xb00b
10002b28:	9614002c 	lhu	s4,44(s0)
10002b2c:	961e0030 	lhu	s8,48(s0)
10002b30:	8e150088 	lw	s5,136(s0)
10002b34:	02602025 	move	a0,s3
10002b38:	ac620000 	sw	v0,0(v1)
10002b3c:	0c000123 	jal	1000048c <_get_task_sp>
10002b40:	afa50030 	sw	a1,48(sp)
10002b44:	8fa50030 	lw	a1,48(sp)
10002b48:	3c041000 	lui	a0,0x1000
10002b4c:	afa50010 	sw	a1,16(sp)
10002b50:	afbe0014 	sw	s8,20(sp)
10002b54:	afb50018 	sw	s5,24(sp)
10002b58:	afa2001c 	sw	v0,28(sp)
10002b5c:	afb70020 	sw	s7,32(sp)
10002b60:	248433b8 	addiu	a0,a0,13240
10002b64:	26050002 	addiu	a1,s0,2
10002b68:	02603025 	move	a2,s3
10002b6c:	0c0001f9 	jal	100007e4 <kprintf>
10002b70:	02803825 	move	a3,s4
10002b74:	16200020 	bnez	s1,10002bf8 <hf_spawn+0x2d0>
10002b78:	3c021009 	lui	v0,0x1009
10002b7c:	3c021009 	lui	v0,0x1009
10002b80:	8c44bc8c 	lw	a0,-17268(v0)
10002b84:	8ec5bc7c 	lw	a1,-17284(s6)
10002b88:	0c00082a 	jal	100020a8 <hf_queue_addtail>
10002b8c:	00000000 	nop
10002b90:	14400030 	bnez	v0,10002c54 <hf_spawn+0x32c>
10002b94:	00000000 	nop
10002b98:	3c021009 	lui	v0,0x1009
10002b9c:	9445bc78 	lhu	a1,-17288(v0)
10002ba0:	8fa4002c 	lw	a0,44(sp)
10002ba4:	00051880 	sll	v1,a1,0x2
10002ba8:	00051100 	sll	v0,a1,0x4
10002bac:	00621021 	addu	v0,v1,v0
10002bb0:	00451023 	subu	v0,v0,a1
10002bb4:	000210c0 	sll	v0,v0,0x3
10002bb8:	02429021 	addu	s2,s2,v0
10002bbc:	0c00007b 	jal	100001ec <_interrupt_set>
10002bc0:	aed2bc7c 	sw	s2,-17284(s6)
10002bc4:	8fa20028 	lw	v0,40(sp)
10002bc8:	8fbf005c 	lw	ra,92(sp)
10002bcc:	8fbe0058 	lw	s8,88(sp)
10002bd0:	8fb70054 	lw	s7,84(sp)
10002bd4:	8fb60050 	lw	s6,80(sp)
10002bd8:	8fb5004c 	lw	s5,76(sp)
10002bdc:	8fb40048 	lw	s4,72(sp)
10002be0:	8fb30044 	lw	s3,68(sp)
10002be4:	8fb20040 	lw	s2,64(sp)
10002be8:	8fb1003c 	lw	s1,60(sp)
10002bec:	8fb00038 	lw	s0,56(sp)
10002bf0:	03e00008 	jr	ra
10002bf4:	27bd0060 	addiu	sp,sp,96
10002bf8:	8c44bc90 	lw	a0,-17264(v0)
10002bfc:	8ec5bc7c 	lw	a1,-17284(s6)
10002c00:	0c00082a 	jal	100020a8 <hf_queue_addtail>
10002c04:	00000000 	nop
10002c08:	1040ffe3 	beqz	v0,10002b98 <hf_spawn+0x270>
10002c0c:	00000000 	nop
10002c10:	0c000797 	jal	10001e5c <panic>
10002c14:	2404000b 	li	a0,11
10002c18:	08000ae7 	j	10002b9c <hf_spawn+0x274>
10002c1c:	3c021009 	lui	v0,0x1009
10002c20:	08000af2 	j	10002bc8 <hf_spawn+0x2a0>
10002c24:	2402ff9b 	li	v0,-101
10002c28:	97c2bc84 	lhu	v0,-17276(s8)
10002c2c:	00000000 	nop
10002c30:	2442ffff 	addiu	v0,v0,-1
10002c34:	ae000088 	sw	zero,136(s0)
10002c38:	24843400 	addiu	a0,a0,13312
10002c3c:	0c0001f9 	jal	100007e4 <kprintf>
10002c40:	a7c2bc84 	sh	v0,-17276(s8)
10002c44:	2402ff98 	li	v0,-104
10002c48:	afa20028 	sw	v0,40(sp)
10002c4c:	08000ae7 	j	10002b9c <hf_spawn+0x274>
10002c50:	3c021009 	lui	v0,0x1009
10002c54:	0c000797 	jal	10001e5c <panic>
10002c58:	24040009 	li	a0,9
10002c5c:	08000ae7 	j	10002b9c <hf_spawn+0x274>
10002c60:	3c021009 	lui	v0,0x1009
10002c64:	24843390 	addiu	a0,a0,13200
10002c68:	0c0001f9 	jal	100007e4 <kprintf>
10002c6c:	2405001e 	li	a1,30
10002c70:	8fa4002c 	lw	a0,44(sp)
10002c74:	0c00007b 	jal	100001ec <_interrupt_set>
10002c78:	00000000 	nop
10002c7c:	08000af2 	j	10002bc8 <hf_spawn+0x2a0>
10002c80:	2402ff99 	li	v0,-103
