
code3.elf:     file format elf32-bigmips


Disassembly of section .text.start:

10000000 <_entry>:
10000000:	3c051001 	lui	a1,0x1001
10000004:	24a50730 	addiu	a1,a1,1840
10000008:	3c041009 	lui	a0,0x1009
1000000c:	2484bba8 	addiu	a0,a0,-17496
10000010:	3c1c1001 	lui	gp,0x1001
10000014:	279c0724 	addiu	gp,gp,1828
10000018:	3c1d2000 	lui	sp,0x2000
1000001c:	27bdfffc 	addiu	sp,sp,-4
10000020:	aca00000 	sw	zero,0(a1)
10000024:	00a4182a 	slt	v1,a1,a0
10000028:	24a50004 	addiu	a1,a1,4
1000002c:	1460fffc 	bnez	v1,10000020 <_entry+0x20>
10000030:	00000000 	nop
10000034:	0c000524 	jal	10001490 <main>
10000038:	00000000 	nop
1000003c:	3c1ae000 	lui	k0,0xe000
10000040:	af400000 	sw	zero,0(k0)
10000044:	1000ffff 	b	10000044 <_entry+0x44>
10000048:	00000000 	nop
	...

10000100 <_isr>:
10000100:	23bdff98 	addi	sp,sp,-104
10000104:	afa10010 	sw	at,16(sp)
10000108:	afa20014 	sw	v0,20(sp)
1000010c:	afa30018 	sw	v1,24(sp)
10000110:	afa4001c 	sw	a0,28(sp)
10000114:	afa50020 	sw	a1,32(sp)
10000118:	afa60024 	sw	a2,36(sp)
1000011c:	afa70028 	sw	a3,40(sp)
10000120:	afa8002c 	sw	t0,44(sp)
10000124:	afa90030 	sw	t1,48(sp)
10000128:	afaa0034 	sw	t2,52(sp)
1000012c:	afab0038 	sw	t3,56(sp)
10000130:	afac003c 	sw	t4,60(sp)
10000134:	afad0040 	sw	t5,64(sp)
10000138:	afae0044 	sw	t6,68(sp)
1000013c:	afaf0048 	sw	t7,72(sp)
10000140:	afb8004c 	sw	t8,76(sp)
10000144:	afb90050 	sw	t9,80(sp)
10000148:	afbf0054 	sw	ra,84(sp)
1000014c:	401a7000 	mfc0	k0,c0_epc
10000150:	235afffc 	addi	k0,k0,-4
10000154:	afba0058 	sw	k0,88(sp)
10000158:	0000d810 	mfhi	k1
1000015c:	afbb005c 	sw	k1,92(sp)
10000160:	0000d812 	mflo	k1
10000164:	afbb0060 	sw	k1,96(sp)
10000168:	3c052000 	lui	a1,0x2000
1000016c:	8ca40020 	lw	a0,32(a1)
10000170:	8ca60010 	lw	a2,16(a1)
10000174:	00862024 	and	a0,a0,a2
10000178:	0c000187 	jal	1000061c <_irq_handler>
1000017c:	27a50000 	addiu	a1,sp,0
10000180:	8fa10010 	lw	at,16(sp)
10000184:	8fa20014 	lw	v0,20(sp)
10000188:	8fa30018 	lw	v1,24(sp)
1000018c:	8fa4001c 	lw	a0,28(sp)
10000190:	8fa50020 	lw	a1,32(sp)
10000194:	8fa60024 	lw	a2,36(sp)
10000198:	8fa70028 	lw	a3,40(sp)
1000019c:	8fa8002c 	lw	t0,44(sp)
100001a0:	8fa90030 	lw	t1,48(sp)
100001a4:	8faa0034 	lw	t2,52(sp)
100001a8:	8fab0038 	lw	t3,56(sp)
100001ac:	8fac003c 	lw	t4,60(sp)
100001b0:	8fad0040 	lw	t5,64(sp)
100001b4:	8fae0044 	lw	t6,68(sp)
100001b8:	8faf0048 	lw	t7,72(sp)
100001bc:	8fb8004c 	lw	t8,76(sp)
100001c0:	8fb90050 	lw	t9,80(sp)
100001c4:	8fbf0054 	lw	ra,84(sp)
100001c8:	8fba0058 	lw	k0,88(sp)
100001cc:	8fbb005c 	lw	k1,92(sp)
100001d0:	03600011 	mthi	k1
100001d4:	8fbb0060 	lw	k1,96(sp)
100001d8:	03600013 	mtlo	k1
100001dc:	23bd0068 	addi	sp,sp,104

100001e0 <isr_return>:
100001e0:	341b0001 	li	k1,0x1
100001e4:	03400008 	jr	k0
100001e8:	409b6000 	mtc0	k1,c0_sr

100001ec <_interrupt_set>:
100001ec:	40026000 	mfc0	v0,c0_sr
100001f0:	40846000 	mtc0	a0,c0_sr
100001f4:	03e00008 	jr	ra
100001f8:	40846000 	mtc0	a0,c0_sr

100001fc <_interrupt_init>:
100001fc:	3c051000 	lui	a1,0x1000
10000200:	24a5022c 	addiu	a1,a1,556
10000204:	8ca60000 	lw	a2,0(a1)
10000208:	ac06003c 	sw	a2,60(zero)
1000020c:	8ca60004 	lw	a2,4(a1)
10000210:	ac060040 	sw	a2,64(zero)
10000214:	8ca60008 	lw	a2,8(a1)
10000218:	ac060044 	sw	a2,68(zero)
1000021c:	8ca6000c 	lw	a2,12(a1)
10000220:	ac060048 	sw	a2,72(zero)
10000224:	03e00008 	jr	ra
10000228:	00000000 	nop

1000022c <_irq_patch>:
1000022c:	3c1a1000 	lui	k0,0x1000
10000230:	275a0100 	addiu	k0,k0,256
10000234:	03400008 	jr	k0
10000238:	00000000 	nop

1000023c <_context_save>:
1000023c:	ac900000 	sw	s0,0(a0)
10000240:	ac910004 	sw	s1,4(a0)
10000244:	ac920008 	sw	s2,8(a0)
10000248:	ac93000c 	sw	s3,12(a0)
1000024c:	ac940010 	sw	s4,16(a0)
10000250:	ac950014 	sw	s5,20(a0)
10000254:	ac960018 	sw	s6,24(a0)
10000258:	ac97001c 	sw	s7,28(a0)
1000025c:	ac9e0020 	sw	s8,32(a0)
10000260:	ac9c0024 	sw	gp,36(a0)
10000264:	ac9d0028 	sw	sp,40(a0)
10000268:	ac9f002c 	sw	ra,44(a0)
1000026c:	03e00008 	jr	ra
10000270:	34020000 	li	v0,0x0

10000274 <_context_restore>:
10000274:	8c900000 	lw	s0,0(a0)
10000278:	8c910004 	lw	s1,4(a0)
1000027c:	8c920008 	lw	s2,8(a0)
10000280:	8c93000c 	lw	s3,12(a0)
10000284:	8c940010 	lw	s4,16(a0)
10000288:	8c950014 	lw	s5,20(a0)
1000028c:	8c960018 	lw	s6,24(a0)
10000290:	8c97001c 	lw	s7,28(a0)
10000294:	8c9e0020 	lw	s8,32(a0)
10000298:	8c9c0024 	lw	gp,36(a0)
1000029c:	8c9d0028 	lw	sp,40(a0)
100002a0:	8c9f002c 	lw	ra,44(a0)
100002a4:	341b0001 	li	k1,0x1
100002a8:	409b6000 	mtc0	k1,c0_sr
100002ac:	03e00008 	jr	ra
100002b0:	34a20000 	ori	v0,a1,0x0

Disassembly of section .text:

100002b4 <_idletask>:
100002b4:	080000ad 	j	100002b4 <_idletask>
100002b8:	00000000 	nop

100002bc <putchar>:
100002bc:	3c022000 	lui	v0,0x2000
100002c0:	ac4400d0 	sw	a0,208(v0)
100002c4:	03e00008 	jr	ra
100002c8:	00000000 	nop

100002cc <_hardware_init>:
100002cc:	3c022000 	lui	v0,0x2000
100002d0:	3c03a5a5 	lui	v1,0xa5a5
100002d4:	8c4400e0 	lw	a0,224(v0)
100002d8:	3463a5a5 	ori	v1,v1,0xa5a5
100002dc:	14830006 	bne	a0,v1,100002f8 <_hardware_init+0x2c>
100002e0:	3c03017d 	lui	v1,0x17d
100002e4:	24637840 	addiu	v1,v1,30784
100002e8:	ac4300a0 	sw	v1,160(v0)
100002ec:	3c030004 	lui	v1,0x4
100002f0:	ac4300b0 	sw	v1,176(v0)
100002f4:	3c022000 	lui	v0,0x2000
100002f8:	ac400010 	sw	zero,16(v0)
100002fc:	03e00008 	jr	ra
10000300:	00000000 	nop

10000304 <_vm_init>:
10000304:	3c041000 	lui	a0,0x1000
10000308:	27bdffe8 	addiu	sp,sp,-24
1000030c:	afbf0014 	sw	ra,20(sp)
10000310:	0c0001f7 	jal	100007dc <kprintf>
10000314:	24842bcc 	addiu	a0,a0,11212
10000318:	3c041001 	lui	a0,0x1001
1000031c:	3c050007 	lui	a1,0x7
10000320:	8fbf0014 	lw	ra,20(sp)
10000324:	248419bc 	addiu	a0,a0,6588
10000328:	34a5a120 	ori	a1,a1,0xa120
1000032c:	0800063e 	j	100018f8 <heapinit>
10000330:	27bd0018 	addiu	sp,sp,24

10000334 <_sched_init>:
10000334:	3c041000 	lui	a0,0x1000
10000338:	080001f7 	j	100007dc <kprintf>
1000033c:	24842be0 	addiu	a0,a0,11232

10000340 <_timer_init>:
10000340:	27bdffe8 	addiu	sp,sp,-24
10000344:	3c041000 	lui	a0,0x1000
10000348:	afb00010 	sw	s0,16(sp)
1000034c:	24842bf4 	addiu	a0,a0,11252
10000350:	afbf0014 	sw	ra,20(sp)
10000354:	0c0001f7 	jal	100007dc <kprintf>
10000358:	3c101000 	lui	s0,0x1000
1000035c:	260522ac 	addiu	a1,s0,8876
10000360:	0c000179 	jal	100005e4 <_irq_register>
10000364:	24040008 	li	a0,8
10000368:	260522ac 	addiu	a1,s0,8876
1000036c:	0c000179 	jal	100005e4 <_irq_register>
10000370:	24040004 	li	a0,4
10000374:	3c022000 	lui	v0,0x2000
10000378:	8c430010 	lw	v1,16(v0)
1000037c:	8fbf0014 	lw	ra,20(sp)
10000380:	34630008 	ori	v1,v1,0x8
10000384:	8fb00010 	lw	s0,16(sp)
10000388:	ac430010 	sw	v1,16(v0)
1000038c:	03e00008 	jr	ra
10000390:	27bd0018 	addiu	sp,sp,24

10000394 <_irq_init>:
10000394:	3c041000 	lui	a0,0x1000
10000398:	080001f7 	j	100007dc <kprintf>
1000039c:	24842c08 	addiu	a0,a0,11272

100003a0 <_device_init>:
100003a0:	3c041000 	lui	a0,0x1000
100003a4:	27bdffe8 	addiu	sp,sp,-24
100003a8:	afbf0014 	sw	ra,20(sp)
100003ac:	0c0001f7 	jal	100007dc <kprintf>
100003b0:	24842c1c 	addiu	a0,a0,11292
100003b4:	8fbf0014 	lw	ra,20(sp)
100003b8:	08000727 	j	10001c9c <ni_init>
100003bc:	27bd0018 	addiu	sp,sp,24

100003c0 <_task_init>:
100003c0:	3c041000 	lui	a0,0x1000
100003c4:	27bdffe0 	addiu	sp,sp,-32
100003c8:	24842c34 	addiu	a0,a0,11316
100003cc:	afbf001c 	sw	ra,28(sp)
100003d0:	0c0001f7 	jal	100007dc <kprintf>
100003d4:	afb00018 	sw	s0,24(sp)
100003d8:	3c021000 	lui	v0,0x1000
100003dc:	2442344c 	addiu	v0,v0,13388
100003e0:	3c041000 	lui	a0,0x1000
100003e4:	00003021 	move	a2,zero
100003e8:	00003821 	move	a3,zero
100003ec:	248402b4 	addiu	a0,a0,692
100003f0:	00002821 	move	a1,zero
100003f4:	afa20010 	sw	v0,16(sp)
100003f8:	24020400 	li	v0,1024
100003fc:	0c000a1e 	jal	10002878 <hf_spawn>
10000400:	afa20014 	sw	v0,20(sp)
10000404:	0c00036a 	jal	10000da8 <app_main>
10000408:	3c101009 	lui	s0,0x1009
1000040c:	3c021009 	lui	v0,0x1009
10000410:	8c45bbb8 	lw	a1,-17480(v0)
10000414:	3c041000 	lui	a0,0x1000
10000418:	0c0001f7 	jal	100007dc <kprintf>
1000041c:	24842c48 	addiu	a0,a0,11336
10000420:	3c041000 	lui	a0,0x1000
10000424:	0c0001f7 	jal	100007dc <kprintf>
10000428:	24842c68 	addiu	a0,a0,11368
1000042c:	3c021001 	lui	v0,0x1001
10000430:	00002021 	move	a0,zero
10000434:	244207ec 	addiu	v0,v0,2028
10000438:	0c0007d9 	jal	10001f64 <hf_schedlock>
1000043c:	ae02bbac 	sw	v0,-17492(s0)
10000440:	8e04bbac 	lw	a0,-17492(s0)
10000444:	8fbf001c 	lw	ra,28(sp)
10000448:	8fb00018 	lw	s0,24(sp)
1000044c:	24050001 	li	a1,1
10000450:	24840038 	addiu	a0,a0,56
10000454:	0800009d 	j	10000274 <_context_restore>
10000458:	27bd0020 	addiu	sp,sp,32

1000045c <_set_task_sp>:
1000045c:	3084ffff 	andi	a0,a0,0xffff
10000460:	00041880 	sll	v1,a0,0x2
10000464:	00041100 	sll	v0,a0,0x4
10000468:	00621021 	addu	v0,v1,v0
1000046c:	00442023 	subu	a0,v0,a0
10000470:	3c021001 	lui	v0,0x1001
10000474:	000420c0 	sll	a0,a0,0x3
10000478:	244207ec 	addiu	v0,v0,2028
1000047c:	00822021 	addu	a0,a0,v0
10000480:	03e00008 	jr	ra
10000484:	ac850060 	sw	a1,96(a0)

10000488 <_get_task_sp>:
10000488:	3084ffff 	andi	a0,a0,0xffff
1000048c:	00041880 	sll	v1,a0,0x2
10000490:	00041100 	sll	v0,a0,0x4
10000494:	00621021 	addu	v0,v1,v0
10000498:	00442023 	subu	a0,v0,a0
1000049c:	3c021001 	lui	v0,0x1001
100004a0:	244207ec 	addiu	v0,v0,2028
100004a4:	000420c0 	sll	a0,a0,0x3
100004a8:	00822021 	addu	a0,a0,v0
100004ac:	8c820060 	lw	v0,96(a0)
100004b0:	03e00008 	jr	ra
100004b4:	00000000 	nop

100004b8 <_set_task_tp>:
100004b8:	3084ffff 	andi	a0,a0,0xffff
100004bc:	00041880 	sll	v1,a0,0x2
100004c0:	00041100 	sll	v0,a0,0x4
100004c4:	00621021 	addu	v0,v1,v0
100004c8:	00442023 	subu	a0,v0,a0
100004cc:	3c021001 	lui	v0,0x1001
100004d0:	000420c0 	sll	a0,a0,0x3
100004d4:	244207ec 	addiu	v0,v0,2028
100004d8:	00822021 	addu	a0,a0,v0
100004dc:	03e00008 	jr	ra
100004e0:	ac850064 	sw	a1,100(a0)

100004e4 <_read_us>:
100004e4:	3c091001 	lui	t1,0x1001
100004e8:	8d220738 	lw	v0,1848(t1)
100004ec:	27bdffe8 	addiu	sp,sp,-24
100004f0:	afbf0014 	sw	ra,20(sp)
100004f4:	14400015 	bnez	v0,1000054c <_read_us+0x68>
100004f8:	3c032000 	lui	v1,0x2000
100004fc:	8c620060 	lw	v0,96(v1)
10000500:	3c021001 	lui	v0,0x1001
10000504:	8c42073c 	lw	v0,1852(v0)
10000508:	8c630060 	lw	v1,96(v1)
1000050c:	3c032000 	lui	v1,0x2000
10000510:	8c6a0060 	lw	t2,96(v1)
10000514:	8c680060 	lw	t0,96(v1)
10000518:	00402021 	move	a0,v0
1000051c:	3c031001 	lui	v1,0x1001
10000520:	01002821 	move	a1,t0
10000524:	24070019 	li	a3,25
10000528:	00003021 	move	a2,zero
1000052c:	ad2a0738 	sw	t2,1848(t1)
10000530:	ac620740 	sw	v0,1856(v1)
10000534:	0c00051c 	jal	10001470 <__udivdi3>
10000538:	ac680744 	sw	t0,1860(v1)
1000053c:	8fbf0014 	lw	ra,20(sp)
10000540:	00000000 	nop
10000544:	03e00008 	jr	ra
10000548:	27bd0018 	addiu	sp,sp,24
1000054c:	8c630060 	lw	v1,96(v1)
10000550:	00000000 	nop
10000554:	0062102b 	sltu	v0,v1,v0
10000558:	10400007 	beqz	v0,10000578 <_read_us+0x94>
1000055c:	00000000 	nop
10000560:	3c031001 	lui	v1,0x1001
10000564:	8c62073c 	lw	v0,1852(v1)
10000568:	00000000 	nop
1000056c:	24420001 	addiu	v0,v0,1
10000570:	08000143 	j	1000050c <_read_us+0x28>
10000574:	ac62073c 	sw	v0,1852(v1)
10000578:	3c021001 	lui	v0,0x1001
1000057c:	8c42073c 	lw	v0,1852(v0)
10000580:	08000144 	j	10000510 <_read_us+0x2c>
10000584:	3c032000 	lui	v1,0x2000

10000588 <_timer_reset>:
10000588:	3c022000 	lui	v0,0x2000
1000058c:	8c430010 	lw	v1,16(v0)
10000590:	27bdffe8 	addiu	sp,sp,-24
10000594:	3863000c 	xori	v1,v1,0xc
10000598:	afbf0014 	sw	ra,20(sp)
1000059c:	ac430010 	sw	v1,16(v0)
100005a0:	0c000139 	jal	100004e4 <_read_us>
100005a4:	00000000 	nop
100005a8:	3c021001 	lui	v0,0x1001
100005ac:	8c450734 	lw	a1,1844(v0)
100005b0:	3c041001 	lui	a0,0x1001
100005b4:	8fbf0014 	lw	ra,20(sp)
100005b8:	00652823 	subu	a1,v1,a1
100005bc:	ac830730 	sw	v1,1840(a0)
100005c0:	3c041009 	lui	a0,0x1009
100005c4:	ac85baf0 	sw	a1,-17680(a0)
100005c8:	ac430734 	sw	v1,1844(v0)
100005cc:	03e00008 	jr	ra
100005d0:	27bd0018 	addiu	sp,sp,24

100005d4 <_panic>:
100005d4:	3c02e000 	lui	v0,0xe000
100005d8:	ac400000 	sw	zero,0(v0)
100005dc:	03e00008 	jr	ra
100005e0:	00000000 	nop

100005e4 <_irq_register>:
100005e4:	3c031001 	lui	v1,0x1001
100005e8:	24630748 	addiu	v1,v1,1864
100005ec:	00001021 	move	v0,zero
100005f0:	24080001 	li	t0,1
100005f4:	24070020 	li	a3,32
100005f8:	00483004 	sllv	a2,t0,v0
100005fc:	00c43024 	and	a2,a2,a0
10000600:	10c00002 	beqz	a2,1000060c <_irq_register+0x28>
10000604:	24420001 	addiu	v0,v0,1
10000608:	ac650000 	sw	a1,0(v1)
1000060c:	1447fffa 	bne	v0,a3,100005f8 <_irq_register+0x14>
10000610:	24630004 	addiu	v1,v1,4
10000614:	03e00008 	jr	ra
10000618:	00000000 	nop

1000061c <_irq_handler>:
1000061c:	3c021009 	lui	v0,0x1009
10000620:	2442badc 	addiu	v0,v0,-17700
10000624:	8c430010 	lw	v1,16(v0)
10000628:	27bdffe0 	addiu	sp,sp,-32
1000062c:	afb10014 	sw	s1,20(sp)
10000630:	24630001 	addiu	v1,v1,1
10000634:	3c111001 	lui	s1,0x1001
10000638:	afb20018 	sw	s2,24(sp)
1000063c:	afb00010 	sw	s0,16(sp)
10000640:	afbf001c 	sw	ra,28(sp)
10000644:	00808021 	move	s0,a0
10000648:	00a09021 	move	s2,a1
1000064c:	ac430010 	sw	v1,16(v0)
10000650:	26310748 	addiu	s1,s1,1864
10000654:	32020001 	andi	v0,s0,0x1
10000658:	10400007 	beqz	v0,10000678 <_irq_handler+0x5c>
1000065c:	00108042 	srl	s0,s0,0x1
10000660:	8e220000 	lw	v0,0(s1)
10000664:	00000000 	nop
10000668:	10400003 	beqz	v0,10000678 <_irq_handler+0x5c>
1000066c:	02402021 	move	a0,s2
10000670:	0040f809 	jalr	v0
10000674:	00000000 	nop
10000678:	1600fff6 	bnez	s0,10000654 <_irq_handler+0x38>
1000067c:	26310004 	addiu	s1,s1,4
10000680:	8fbf001c 	lw	ra,28(sp)
10000684:	8fb20018 	lw	s2,24(sp)
10000688:	8fb10014 	lw	s1,20(sp)
1000068c:	8fb00010 	lw	s0,16(sp)
10000690:	03e00008 	jr	ra
10000694:	27bd0020 	addiu	sp,sp,32

10000698 <_irq_mask_set>:
10000698:	27bdffe8 	addiu	sp,sp,-24
1000069c:	afb00010 	sw	s0,16(sp)
100006a0:	00808021 	move	s0,a0
100006a4:	afbf0014 	sw	ra,20(sp)
100006a8:	0c00007b 	jal	100001ec <_interrupt_set>
100006ac:	00002021 	move	a0,zero
100006b0:	3c032000 	lui	v1,0x2000
100006b4:	8c650010 	lw	a1,16(v1)
100006b8:	8fbf0014 	lw	ra,20(sp)
100006bc:	02058025 	or	s0,s0,a1
100006c0:	ac700010 	sw	s0,16(v1)
100006c4:	00402021 	move	a0,v0
100006c8:	8fb00010 	lw	s0,16(sp)
100006cc:	0800007b 	j	100001ec <_interrupt_set>
100006d0:	27bd0018 	addiu	sp,sp,24

100006d4 <kitoa.part.0>:
100006d4:	24020010 	li	v0,16
100006d8:	10a20023 	beq	a1,v0,10000768 <kitoa.part.0+0x94>
100006dc:	00803021 	move	a2,a0
100006e0:	04800034 	bltz	a0,100007b4 <kitoa.part.0+0xe0>
100006e4:	00000000 	nop
100006e8:	10800019 	beqz	a0,10000750 <kitoa.part.0+0x7c>
100006ec:	00004021 	move	t0,zero
100006f0:	3c021001 	lui	v0,0x1001
100006f4:	3c071000 	lui	a3,0x1000
100006f8:	2403001e 	li	v1,30
100006fc:	244207c8 	addiu	v0,v0,1992
10000700:	080001c4 	j	10000710 <kitoa.part.0+0x3c>
10000704:	24e72c84 	addiu	a3,a3,11396
10000708:	1060000b 	beqz	v1,10000738 <kitoa.part.0+0x64>
1000070c:	00000000 	nop
10000710:	00c5001a 	div	zero,a2,a1
10000714:	00432021 	addu	a0,v0,v1
10000718:	2463ffff 	addiu	v1,v1,-1
1000071c:	00003010 	mfhi	a2
10000720:	00e63021 	addu	a2,a3,a2
10000724:	90c90000 	lbu	t1,0(a2)
10000728:	00005012 	mflo	t2
1000072c:	00003012 	mflo	a2
10000730:	1540fff5 	bnez	t2,10000708 <kitoa.part.0+0x34>
10000734:	a0890000 	sb	t1,0(a0)
10000738:	11000008 	beqz	t0,1000075c <kitoa.part.0+0x88>
1000073c:	00432021 	addu	a0,v0,v1
10000740:	2405002d 	li	a1,45
10000744:	a0850000 	sb	a1,0(a0)
10000748:	03e00008 	jr	ra
1000074c:	00431021 	addu	v0,v0,v1
10000750:	3c021001 	lui	v0,0x1001
10000754:	2403001e 	li	v1,30
10000758:	244207c8 	addiu	v0,v0,1992
1000075c:	24630001 	addiu	v1,v1,1
10000760:	03e00008 	jr	ra
10000764:	00431021 	addu	v0,v0,v1
10000768:	10800018 	beqz	a0,100007cc <kitoa.part.0+0xf8>
1000076c:	3c071000 	lui	a3,0x1000
10000770:	3c021001 	lui	v0,0x1001
10000774:	2403001e 	li	v1,30
10000778:	244207c8 	addiu	v0,v0,1992
1000077c:	080001e3 	j	1000078c <kitoa.part.0+0xb8>
10000780:	24e72c84 	addiu	a3,a3,11396
10000784:	1060000e 	beqz	v1,100007c0 <kitoa.part.0+0xec>
10000788:	00000000 	nop
1000078c:	30c4000f 	andi	a0,a2,0xf
10000790:	00e42021 	addu	a0,a3,a0
10000794:	90850000 	lbu	a1,0(a0)
10000798:	00063102 	srl	a2,a2,0x4
1000079c:	00432021 	addu	a0,v0,v1
100007a0:	a0850000 	sb	a1,0(a0)
100007a4:	14c0fff7 	bnez	a2,10000784 <kitoa.part.0+0xb0>
100007a8:	2463ffff 	addiu	v1,v1,-1
100007ac:	080001d8 	j	10000760 <kitoa.part.0+0x8c>
100007b0:	24630001 	addiu	v1,v1,1
100007b4:	00043023 	negu	a2,a0
100007b8:	080001bc 	j	100006f0 <kitoa.part.0+0x1c>
100007bc:	24080001 	li	t0,1
100007c0:	24030001 	li	v1,1
100007c4:	03e00008 	jr	ra
100007c8:	00431021 	addu	v0,v0,v1
100007cc:	3c021001 	lui	v0,0x1001
100007d0:	2403001f 	li	v1,31
100007d4:	080001d2 	j	10000748 <kitoa.part.0+0x74>
100007d8:	244207c8 	addiu	v0,v0,1992

100007dc <kprintf>:
100007dc:	27bdffc0 	addiu	sp,sp,-64
100007e0:	27a20044 	addiu	v0,sp,68
100007e4:	afb60034 	sw	s6,52(sp)
100007e8:	afb50030 	sw	s5,48(sp)
100007ec:	afb4002c 	sw	s4,44(sp)
100007f0:	afb30028 	sw	s3,40(sp)
100007f4:	afb20024 	sw	s2,36(sp)
100007f8:	afb10020 	sw	s1,32(sp)
100007fc:	afb0001c 	sw	s0,28(sp)
10000800:	afbf003c 	sw	ra,60(sp)
10000804:	afb70038 	sw	s7,56(sp)
10000808:	afa50044 	sw	a1,68(sp)
1000080c:	afa60048 	sw	a2,72(sp)
10000810:	afa7004c 	sw	a3,76(sp)
10000814:	00808021 	move	s0,a0
10000818:	afa20010 	sw	v0,16(sp)
1000081c:	0040a821 	move	s5,v0
10000820:	24110025 	li	s1,37
10000824:	24120064 	li	s2,100
10000828:	3c141000 	lui	s4,0x1000
1000082c:	24130073 	li	s3,115
10000830:	3c161000 	lui	s6,0x1000
10000834:	82040000 	lb	a0,0(s0)
10000838:	00000000 	nop
1000083c:	10800009 	beqz	a0,10000864 <kprintf+0x88>
10000840:	00000000 	nop
10000844:	10910013 	beq	a0,s1,10000894 <kprintf+0xb8>
10000848:	00000000 	nop
1000084c:	0c0000af 	jal	100002bc <putchar>
10000850:	26100001 	addiu	s0,s0,1
10000854:	82040000 	lb	a0,0(s0)
10000858:	00000000 	nop
1000085c:	1480fff9 	bnez	a0,10000844 <kprintf+0x68>
10000860:	00000000 	nop
10000864:	8fbf003c 	lw	ra,60(sp)
10000868:	00001021 	move	v0,zero
1000086c:	8fb70038 	lw	s7,56(sp)
10000870:	8fb60034 	lw	s6,52(sp)
10000874:	8fb50030 	lw	s5,48(sp)
10000878:	8fb4002c 	lw	s4,44(sp)
1000087c:	8fb30028 	lw	s3,40(sp)
10000880:	8fb20024 	lw	s2,36(sp)
10000884:	8fb10020 	lw	s1,32(sp)
10000888:	8fb0001c 	lw	s0,28(sp)
1000088c:	03e00008 	jr	ra
10000890:	27bd0040 	addiu	sp,sp,64
10000894:	82020001 	lb	v0,1(s0)
10000898:	00000000 	nop
1000089c:	10520030 	beq	v0,s2,10000960 <kprintf+0x184>
100008a0:	28430065 	slti	v1,v0,101
100008a4:	10600009 	beqz	v1,100008cc <kprintf+0xf0>
100008a8:	00000000 	nop
100008ac:	10510043 	beq	v0,s1,100009bc <kprintf+0x1e0>
100008b0:	24030063 	li	v1,99
100008b4:	1043003b 	beq	v0,v1,100009a4 <kprintf+0x1c8>
100008b8:	00000000 	nop
100008bc:	0c0000af 	jal	100002bc <putchar>
100008c0:	2404003f 	li	a0,63
100008c4:	0800020d 	j	10000834 <kprintf+0x58>
100008c8:	26100002 	addiu	s0,s0,2
100008cc:	10530014 	beq	v0,s3,10000920 <kprintf+0x144>
100008d0:	24030078 	li	v1,120
100008d4:	1443fff9 	bne	v0,v1,100008bc <kprintf+0xe0>
100008d8:	00000000 	nop
100008dc:	8ea40000 	lw	a0,0(s5)
100008e0:	00000000 	nop
100008e4:	14800039 	bnez	a0,100009cc <kprintf+0x1f0>
100008e8:	26b50004 	addiu	s5,s5,4
100008ec:	26972c98 	addiu	s7,s4,11416
100008f0:	82e40000 	lb	a0,0(s7)
100008f4:	00000000 	nop
100008f8:	1080fff2 	beqz	a0,100008c4 <kprintf+0xe8>
100008fc:	00000000 	nop
10000900:	0c0000af 	jal	100002bc <putchar>
10000904:	26f70001 	addiu	s7,s7,1
10000908:	82e40000 	lb	a0,0(s7)
1000090c:	00000000 	nop
10000910:	1480fffb 	bnez	a0,10000900 <kprintf+0x124>
10000914:	00000000 	nop
10000918:	0800020d 	j	10000834 <kprintf+0x58>
1000091c:	26100002 	addiu	s0,s0,2
10000920:	8eb70000 	lw	s7,0(s5)
10000924:	00000000 	nop
10000928:	12e00030 	beqz	s7,100009ec <kprintf+0x210>
1000092c:	26b50004 	addiu	s5,s5,4
10000930:	82e40000 	lb	a0,0(s7)
10000934:	00000000 	nop
10000938:	1080ffe2 	beqz	a0,100008c4 <kprintf+0xe8>
1000093c:	26f70001 	addiu	s7,s7,1
10000940:	0c0000af 	jal	100002bc <putchar>
10000944:	26f70001 	addiu	s7,s7,1
10000948:	82e4ffff 	lb	a0,-1(s7)
1000094c:	00000000 	nop
10000950:	1480fffb 	bnez	a0,10000940 <kprintf+0x164>
10000954:	00000000 	nop
10000958:	0800020d 	j	10000834 <kprintf+0x58>
1000095c:	26100002 	addiu	s0,s0,2
10000960:	8ea40000 	lw	a0,0(s5)
10000964:	00000000 	nop
10000968:	1480001c 	bnez	a0,100009dc <kprintf+0x200>
1000096c:	26b50004 	addiu	s5,s5,4
10000970:	26972c98 	addiu	s7,s4,11416
10000974:	82e40000 	lb	a0,0(s7)
10000978:	00000000 	nop
1000097c:	1080ffd1 	beqz	a0,100008c4 <kprintf+0xe8>
10000980:	00000000 	nop
10000984:	0c0000af 	jal	100002bc <putchar>
10000988:	26f70001 	addiu	s7,s7,1
1000098c:	82e40000 	lb	a0,0(s7)
10000990:	00000000 	nop
10000994:	1480fffb 	bnez	a0,10000984 <kprintf+0x1a8>
10000998:	00000000 	nop
1000099c:	0800020d 	j	10000834 <kprintf+0x58>
100009a0:	26100002 	addiu	s0,s0,2
100009a4:	82a40003 	lb	a0,3(s5)
100009a8:	26100002 	addiu	s0,s0,2
100009ac:	0c0000af 	jal	100002bc <putchar>
100009b0:	26b50004 	addiu	s5,s5,4
100009b4:	0800020d 	j	10000834 <kprintf+0x58>
100009b8:	00000000 	nop
100009bc:	0c0000af 	jal	100002bc <putchar>
100009c0:	24040025 	li	a0,37
100009c4:	0800020d 	j	10000834 <kprintf+0x58>
100009c8:	26100002 	addiu	s0,s0,2
100009cc:	0c0001b5 	jal	100006d4 <kitoa.part.0>
100009d0:	24050010 	li	a1,16
100009d4:	0800023c 	j	100008f0 <kprintf+0x114>
100009d8:	0040b821 	move	s7,v0
100009dc:	0c0001b5 	jal	100006d4 <kitoa.part.0>
100009e0:	2405000a 	li	a1,10
100009e4:	0800025d 	j	10000974 <kprintf+0x198>
100009e8:	0040b821 	move	s7,v0
100009ec:	0800024c 	j	10000930 <kprintf+0x154>
100009f0:	26d72c9c 	addiu	s7,s6,11420

100009f4 <mark>:
100009f4:	27bdfff8 	addiu	sp,sp,-8
100009f8:	8fa20018 	lw	v0,24(sp)
100009fc:	afb10004 	sw	s1,4(sp)
10000a00:	00e20018 	mult	a3,v0
10000a04:	00001812 	mflo	v1
10000a08:	1860003c 	blez	v1,10000afc <mark+0x108>
10000a0c:	afb00000 	sw	s0,0(sp)
10000a10:	00028023 	negu	s0,v0
10000a14:	24710002 	addiu	s1,v1,2
10000a18:	240d0002 	li	t5,2
10000a1c:	00021880 	sll	v1,v0,0x2
10000a20:	00108080 	sll	s0,s0,0x2
10000a24:	18e00032 	blez	a3,10000af0 <mark+0xfc>
10000a28:	25abffff 	addiu	t3,t5,-1
10000a2c:	00802821 	move	a1,a0
10000a30:	240c0001 	li	t4,1
10000a34:	1840003b 	blez	v0,10000b24 <mark+0x130>
10000a38:	00000000 	nop
10000a3c:	0065c021 	addu	t8,v1,a1
10000a40:	0180c821 	move	t9,t4
10000a44:	03004821 	move	t1,t8
10000a48:	00b04021 	addu	t0,a1,s0
10000a4c:	24060001 	li	a2,1
10000a50:	258fffff 	addiu	t7,t4,-1
10000a54:	0800029d 	j	10000a74 <mark+0x80>
10000a58:	0187702a 	slt	t6,t4,a3
10000a5c:	11400020 	beqz	t2,10000ae0 <mark+0xec>
10000a60:	00000000 	nop
10000a64:	24a50004 	addiu	a1,a1,4
10000a68:	24c60001 	addiu	a2,a2,1
10000a6c:	25290004 	addiu	t1,t1,4
10000a70:	25080004 	addiu	t0,t0,4
10000a74:	8caa0000 	lw	t2,0(a1)
10000a78:	00000000 	nop
10000a7c:	154bfff7 	bne	t2,t3,10000a5c <mark+0x68>
10000a80:	00c2502a 	slt	t2,a2,v0
10000a84:	19e00006 	blez	t7,10000aa0 <mark+0xac>
10000a88:	00000000 	nop
10000a8c:	8d0a0000 	lw	t2,0(t0)
10000a90:	00000000 	nop
10000a94:	15400002 	bnez	t2,10000aa0 <mark+0xac>
10000a98:	00000000 	nop
10000a9c:	ad0d0000 	sw	t5,0(t0)
10000aa0:	11c00006 	beqz	t6,10000abc <mark+0xc8>
10000aa4:	24caffff 	addiu	t2,a2,-1
10000aa8:	8d2a0000 	lw	t2,0(t1)
10000aac:	00000000 	nop
10000ab0:	15400002 	bnez	t2,10000abc <mark+0xc8>
10000ab4:	24caffff 	addiu	t2,a2,-1
10000ab8:	ad2d0000 	sw	t5,0(t1)
10000abc:	19400006 	blez	t2,10000ad8 <mark+0xe4>
10000ac0:	00c2502a 	slt	t2,a2,v0
10000ac4:	8caafffc 	lw	t2,-4(a1)
10000ac8:	00000000 	nop
10000acc:	15400002 	bnez	t2,10000ad8 <mark+0xe4>
10000ad0:	00c2502a 	slt	t2,a2,v0
10000ad4:	acadfffc 	sw	t5,-4(a1)
10000ad8:	1540000c 	bnez	t2,10000b0c <mark+0x118>
10000adc:	00000000 	nop
10000ae0:	0327c82a 	slt	t9,t9,a3
10000ae4:	258c0001 	addiu	t4,t4,1
10000ae8:	1720ffd2 	bnez	t9,10000a34 <mark+0x40>
10000aec:	03002821 	move	a1,t8
10000af0:	25ad0001 	addiu	t5,t5,1
10000af4:	15b1ffcb 	bne	t5,s1,10000a24 <mark+0x30>
10000af8:	00000000 	nop
10000afc:	8fb10004 	lw	s1,4(sp)
10000b00:	8fb00000 	lw	s0,0(sp)
10000b04:	03e00008 	jr	ra
10000b08:	27bd0008 	addiu	sp,sp,8
10000b0c:	8caa0004 	lw	t2,4(a1)
10000b10:	00000000 	nop
10000b14:	1540ffd3 	bnez	t2,10000a64 <mark+0x70>
10000b18:	00000000 	nop
10000b1c:	08000299 	j	10000a64 <mark+0x70>
10000b20:	acad0004 	sw	t5,4(a1)
10000b24:	0180c821 	move	t9,t4
10000b28:	080002b8 	j	10000ae0 <mark+0xec>
10000b2c:	00a3c021 	addu	t8,a1,v1

10000b30 <search>:
10000b30:	27bdffc8 	addiu	sp,sp,-56
10000b34:	afbe0030 	sw	s8,48(sp)
10000b38:	afb40020 	sw	s4,32(sp)
10000b3c:	afb3001c 	sw	s3,28(sp)
10000b40:	3c1e1000 	lui	s8,0x1000
10000b44:	8fb4004c 	lw	s4,76(sp)
10000b48:	8fb30050 	lw	s3,80(sp)
10000b4c:	afb20018 	sw	s2,24(sp)
10000b50:	afb10014 	sw	s1,20(sp)
10000b54:	afb00010 	sw	s0,16(sp)
10000b58:	afbf0034 	sw	ra,52(sp)
10000b5c:	afb7002c 	sw	s7,44(sp)
10000b60:	afb60028 	sw	s6,40(sp)
10000b64:	afb50024 	sw	s5,36(sp)
10000b68:	00809021 	move	s2,a0
10000b6c:	00a08021 	move	s0,a1
10000b70:	00c08821 	move	s1,a2
10000b74:	afa70044 	sw	a3,68(sp)
10000b78:	27de2cac 	addiu	s8,s8,11436
10000b7c:	02130018 	mult	s0,s3
10000b80:	03c02021 	move	a0,s8
10000b84:	02002821 	move	a1,s0
10000b88:	0000b812 	mflo	s7
10000b8c:	02f1b021 	addu	s6,s7,s1
10000b90:	00161080 	sll	v0,s6,0x2
10000b94:	02421021 	addu	v0,s2,v0
10000b98:	8c550000 	lw	s5,0(v0)
10000b9c:	0c0004c9 	jal	10001324 <printf>
10000ba0:	02203021 	move	a2,s1
10000ba4:	1a000022 	blez	s0,10000c30 <search+0x100>
10000ba8:	2602ffff 	addiu	v0,s0,-1
10000bac:	00530018 	mult	v0,s3
10000bb0:	00001812 	mflo	v1
10000bb4:	00711821 	addu	v1,v1,s1
10000bb8:	00031880 	sll	v1,v1,0x2
10000bbc:	02431821 	addu	v1,s2,v1
10000bc0:	8c630000 	lw	v1,0(v1)
10000bc4:	00000000 	nop
10000bc8:	0075202a 	slt	a0,v1,s5
10000bcc:	10800018 	beqz	a0,10000c30 <search+0x100>
10000bd0:	00000000 	nop
10000bd4:	18600016 	blez	v1,10000c30 <search+0x100>
10000bd8:	00000000 	nop
10000bdc:	00408021 	move	s0,v0
10000be0:	2ab50002 	slti	s5,s5,2
10000be4:	12a0ffe6 	beqz	s5,10000b80 <search+0x50>
10000be8:	02130018 	mult	s0,s3
10000bec:	8fa20044 	lw	v0,68(sp)
10000bf0:	00000000 	nop
10000bf4:	1202003a 	beq	s0,v0,10000ce0 <search+0x1b0>
10000bf8:	00000000 	nop
10000bfc:	00001021 	move	v0,zero
10000c00:	8fbf0034 	lw	ra,52(sp)
10000c04:	8fbe0030 	lw	s8,48(sp)
10000c08:	8fb7002c 	lw	s7,44(sp)
10000c0c:	8fb60028 	lw	s6,40(sp)
10000c10:	8fb50024 	lw	s5,36(sp)
10000c14:	8fb40020 	lw	s4,32(sp)
10000c18:	8fb3001c 	lw	s3,28(sp)
10000c1c:	8fb20018 	lw	s2,24(sp)
10000c20:	8fb10014 	lw	s1,20(sp)
10000c24:	8fb00010 	lw	s0,16(sp)
10000c28:	03e00008 	jr	ra
10000c2c:	27bd0038 	addiu	sp,sp,56
10000c30:	26020001 	addiu	v0,s0,1
10000c34:	0054182a 	slt	v1,v0,s4
10000c38:	1060000c 	beqz	v1,10000c6c <search+0x13c>
10000c3c:	02620018 	mult	s3,v0
10000c40:	00001812 	mflo	v1
10000c44:	00711821 	addu	v1,v1,s1
10000c48:	00031880 	sll	v1,v1,0x2
10000c4c:	02431821 	addu	v1,s2,v1
10000c50:	8c630000 	lw	v1,0(v1)
10000c54:	00000000 	nop
10000c58:	0075202a 	slt	a0,v1,s5
10000c5c:	10800003 	beqz	a0,10000c6c <search+0x13c>
10000c60:	00000000 	nop
10000c64:	1c60ffdd 	bgtz	v1,10000bdc <search+0xac>
10000c68:	00000000 	nop
10000c6c:	1a20000c 	blez	s1,10000ca0 <search+0x170>
10000c70:	26d6ffff 	addiu	s6,s6,-1
10000c74:	0016b080 	sll	s6,s6,0x2
10000c78:	0256b021 	addu	s6,s2,s6
10000c7c:	8ec20000 	lw	v0,0(s6)
10000c80:	00000000 	nop
10000c84:	0055182a 	slt	v1,v0,s5
10000c88:	10600005 	beqz	v1,10000ca0 <search+0x170>
10000c8c:	00000000 	nop
10000c90:	18400004 	blez	v0,10000ca4 <search+0x174>
10000c94:	26220001 	addiu	v0,s1,1
10000c98:	080002f8 	j	10000be0 <search+0xb0>
10000c9c:	2631ffff 	addiu	s1,s1,-1
10000ca0:	26220001 	addiu	v0,s1,1
10000ca4:	0053182a 	slt	v1,v0,s3
10000ca8:	1060ffcd 	beqz	v1,10000be0 <search+0xb0>
10000cac:	00000000 	nop
10000cb0:	02e2b821 	addu	s7,s7,v0
10000cb4:	0017b880 	sll	s7,s7,0x2
10000cb8:	0257b821 	addu	s7,s2,s7
10000cbc:	8ee30000 	lw	v1,0(s7)
10000cc0:	00000000 	nop
10000cc4:	0075202a 	slt	a0,v1,s5
10000cc8:	1080ffc5 	beqz	a0,10000be0 <search+0xb0>
10000ccc:	00000000 	nop
10000cd0:	1860ffc3 	blez	v1,10000be0 <search+0xb0>
10000cd4:	00000000 	nop
10000cd8:	080002f8 	j	10000be0 <search+0xb0>
10000cdc:	00408821 	move	s1,v0
10000ce0:	8fa20048 	lw	v0,72(sp)
10000ce4:	00000000 	nop
10000ce8:	02228826 	xor	s1,s1,v0
10000cec:	08000300 	j	10000c00 <search+0xd0>
10000cf0:	2e220001 	sltiu	v0,s1,1

10000cf4 <solve>:
10000cf4:	27bdffc8 	addiu	sp,sp,-56
10000cf8:	afb20020 	sw	s2,32(sp)
10000cfc:	8fb2004c 	lw	s2,76(sp)
10000d00:	afb1001c 	sw	s1,28(sp)
10000d04:	02460018 	mult	s2,a2
10000d08:	8fb10050 	lw	s1,80(sp)
10000d0c:	afb5002c 	sw	s5,44(sp)
10000d10:	afb30024 	sw	s3,36(sp)
10000d14:	afb00018 	sw	s0,24(sp)
10000d18:	00a09821 	move	s3,a1
10000d1c:	00c08021 	move	s0,a2
10000d20:	8fb50048 	lw	s5,72(sp)
10000d24:	24030001 	li	v1,1
10000d28:	afbf0034 	sw	ra,52(sp)
10000d2c:	afb60030 	sw	s6,48(sp)
10000d30:	afb40028 	sw	s4,40(sp)
10000d34:	00001012 	mflo	v0
10000d38:	00511021 	addu	v0,v0,s1
10000d3c:	00021080 	sll	v0,v0,0x2
10000d40:	00821021 	addu	v0,a0,v0
10000d44:	afb00010 	sw	s0,16(sp)
10000d48:	0080a021 	move	s4,a0
10000d4c:	00e0b021 	move	s6,a3
10000d50:	02402821 	move	a1,s2
10000d54:	02203021 	move	a2,s1
10000d58:	02603821 	move	a3,s3
10000d5c:	0c00027d 	jal	100009f4 <mark>
10000d60:	ac430000 	sw	v1,0(v0)
10000d64:	afb10048 	sw	s1,72(sp)
10000d68:	afb3004c 	sw	s3,76(sp)
10000d6c:	afb00050 	sw	s0,80(sp)
10000d70:	02802021 	move	a0,s4
10000d74:	02c02821 	move	a1,s6
10000d78:	02a03021 	move	a2,s5
10000d7c:	02403821 	move	a3,s2
10000d80:	8fbf0034 	lw	ra,52(sp)
10000d84:	8fb60030 	lw	s6,48(sp)
10000d88:	8fb5002c 	lw	s5,44(sp)
10000d8c:	8fb40028 	lw	s4,40(sp)
10000d90:	8fb30024 	lw	s3,36(sp)
10000d94:	8fb20020 	lw	s2,32(sp)
10000d98:	8fb1001c 	lw	s1,28(sp)
10000d9c:	8fb00018 	lw	s0,24(sp)
10000da0:	080002cc 	j	10000b30 <search>
10000da4:	27bd0038 	addiu	sp,sp,56

10000da8 <app_main>:
10000da8:	27bdffb8 	addiu	sp,sp,-72
10000dac:	afbf0044 	sw	ra,68(sp)
10000db0:	afbe0040 	sw	s8,64(sp)
10000db4:	afb7003c 	sw	s7,60(sp)
10000db8:	afb60038 	sw	s6,56(sp)
10000dbc:	afb50034 	sw	s5,52(sp)
10000dc0:	afb40030 	sw	s4,48(sp)
10000dc4:	afb3002c 	sw	s3,44(sp)
10000dc8:	afb20028 	sw	s2,40(sp)
10000dcc:	afb10024 	sw	s1,36(sp)
10000dd0:	0c000139 	jal	100004e4 <_read_us>
10000dd4:	afb00020 	sw	s0,32(sp)
10000dd8:	3c101000 	lui	s0,0x1000
10000ddc:	26042cb8 	addiu	a0,s0,11448
10000de0:	00003021 	move	a2,zero
10000de4:	00403821 	move	a3,v0
10000de8:	afa30014 	sw	v1,20(sp)
10000dec:	0c0004c9 	jal	10001324 <printf>
10000df0:	afa00010 	sw	zero,16(sp)
10000df4:	0c000139 	jal	100004e4 <_read_us>
10000df8:	3c171000 	lui	s7,0x1000
10000dfc:	00403821 	move	a3,v0
10000e00:	26042cb8 	addiu	a0,s0,11448
10000e04:	00003021 	move	a2,zero
10000e08:	afa30014 	sw	v1,20(sp)
10000e0c:	0c0004c9 	jal	10001324 <printf>
10000e10:	afa00010 	sw	zero,16(sp)
10000e14:	0c000139 	jal	100004e4 <_read_us>
10000e18:	3c1e1000 	lui	s8,0x1000
10000e1c:	3c161000 	lui	s6,0x1000
10000e20:	00609021 	move	s2,v1
10000e24:	00408821 	move	s1,v0
10000e28:	00001821 	move	v1,zero
10000e2c:	0000a021 	move	s4,zero
10000e30:	00009821 	move	s3,zero
10000e34:	26f734a8 	addiu	s7,s7,13480
10000e38:	27de2cd4 	addiu	s8,s8,11476
10000e3c:	26d62ccc 	addiu	s6,s6,11468
10000e40:	08000397 	j	10000e5c <app_main+0xb4>
10000e44:	2415000f 	li	s5,15
10000e48:	0c0004c9 	jal	10001324 <printf>
10000e4c:	26730001 	addiu	s3,s3,1
10000e50:	26940001 	addiu	s4,s4,1
10000e54:	12750017 	beq	s3,s5,10000eb4 <app_main+0x10c>
10000e58:	02601821 	move	v1,s3
10000e5c:	00032080 	sll	a0,v1,0x2
10000e60:	00031140 	sll	v0,v1,0x5
10000e64:	00441023 	subu	v0,v0,a0
10000e68:	02e21021 	addu	v0,s7,v0
10000e6c:	8c440018 	lw	a0,24(v0)
10000e70:	8c450000 	lw	a1,0(v0)
10000e74:	8c460004 	lw	a2,4(v0)
10000e78:	8c470008 	lw	a3,8(v0)
10000e7c:	8c48000c 	lw	t0,12(v0)
10000e80:	8c430010 	lw	v1,16(v0)
10000e84:	8c420014 	lw	v0,20(v0)
10000e88:	afa80010 	sw	t0,16(sp)
10000e8c:	afa30014 	sw	v1,20(sp)
10000e90:	0c00033d 	jal	10000cf4 <solve>
10000e94:	afa20018 	sw	v0,24(sp)
10000e98:	1440ffeb 	bnez	v0,10000e48 <app_main+0xa0>
10000e9c:	02c02021 	move	a0,s6
10000ea0:	03c02021 	move	a0,s8
10000ea4:	0c0004c9 	jal	10001324 <printf>
10000ea8:	26730001 	addiu	s3,s3,1
10000eac:	1675ffeb 	bne	s3,s5,10000e5c <app_main+0xb4>
10000eb0:	02601821 	move	v1,s3
10000eb4:	3c041000 	lui	a0,0x1000
10000eb8:	02802821 	move	a1,s4
10000ebc:	24842ce0 	addiu	a0,a0,11488
10000ec0:	0c0004c9 	jal	10001324 <printf>
10000ec4:	2406000f 	li	a2,15
10000ec8:	0c000139 	jal	100004e4 <_read_us>
10000ecc:	00000000 	nop
10000ed0:	00729023 	subu	s2,v1,s2
10000ed4:	0072182b 	sltu	v1,v1,s2
10000ed8:	00511023 	subu	v0,v0,s1
10000edc:	26042cb8 	addiu	a0,s0,11448
10000ee0:	00003021 	move	a2,zero
10000ee4:	00433823 	subu	a3,v0,v1
10000ee8:	afb20014 	sw	s2,20(sp)
10000eec:	0c0004c9 	jal	10001324 <printf>
10000ef0:	afa00010 	sw	zero,16(sp)
10000ef4:	8fbf0044 	lw	ra,68(sp)
10000ef8:	8fbe0040 	lw	s8,64(sp)
10000efc:	8fb7003c 	lw	s7,60(sp)
10000f00:	8fb60038 	lw	s6,56(sp)
10000f04:	8fb50034 	lw	s5,52(sp)
10000f08:	8fb40030 	lw	s4,48(sp)
10000f0c:	8fb3002c 	lw	s3,44(sp)
10000f10:	8fb20028 	lw	s2,40(sp)
10000f14:	8fb10024 	lw	s1,36(sp)
10000f18:	8fb00020 	lw	s0,32(sp)
10000f1c:	00002021 	move	a0,zero
10000f20:	0800076f 	j	10001dbc <panic>
10000f24:	27bd0048 	addiu	sp,sp,72

10000f28 <printchar>:
10000f28:	10800009 	beqz	a0,10000f50 <printchar+0x28>
10000f2c:	00000000 	nop
10000f30:	8c820000 	lw	v0,0(a0)
10000f34:	00000000 	nop
10000f38:	a0450000 	sb	a1,0(v0)
10000f3c:	8c820000 	lw	v0,0(a0)
10000f40:	00000000 	nop
10000f44:	24420001 	addiu	v0,v0,1
10000f48:	03e00008 	jr	ra
10000f4c:	ac820000 	sw	v0,0(a0)
10000f50:	14a00003 	bnez	a1,10000f60 <printchar+0x38>
10000f54:	00000000 	nop
10000f58:	03e00008 	jr	ra
10000f5c:	00000000 	nop
10000f60:	080000af 	j	100002bc <putchar>
10000f64:	00a02021 	move	a0,a1

10000f68 <vsprintf>:
10000f68:	27bdffb8 	addiu	sp,sp,-72
10000f6c:	afbe0040 	sw	s8,64(sp)
10000f70:	afb10024 	sw	s1,36(sp)
10000f74:	afb00020 	sw	s0,32(sp)
10000f78:	afbf0044 	sw	ra,68(sp)
10000f7c:	afb7003c 	sw	s7,60(sp)
10000f80:	afb60038 	sw	s6,56(sp)
10000f84:	afb50034 	sw	s5,52(sp)
10000f88:	afb40030 	sw	s4,48(sp)
10000f8c:	afb3002c 	sw	s3,44(sp)
10000f90:	afb20028 	sw	s2,40(sp)
10000f94:	00a08821 	move	s1,a1
10000f98:	80a50000 	lb	a1,0(a1)
10000f9c:	00808021 	move	s0,a0
10000fa0:	10a00035 	beqz	a1,10001078 <vsprintf+0x110>
10000fa4:	00c0f021 	move	s8,a2
10000fa8:	3c171000 	lui	s7,0x1000
10000fac:	26f72c84 	addiu	s7,s7,11396
10000fb0:	24020025 	li	v0,37
10000fb4:	14a2002a 	bne	a1,v0,10001060 <vsprintf+0xf8>
10000fb8:	24030030 	li	v1,48
10000fbc:	82220001 	lb	v0,1(s1)
10000fc0:	00000000 	nop
10000fc4:	104300a0 	beq	v0,v1,10001248 <vsprintf+0x2e0>
10000fc8:	24140030 	li	s4,48
10000fcc:	26310001 	addiu	s1,s1,1
10000fd0:	24140020 	li	s4,32
10000fd4:	2443ffd0 	addiu	v1,v0,-48
10000fd8:	306300ff 	andi	v1,v1,0xff
10000fdc:	2c63000a 	sltiu	v1,v1,10
10000fe0:	10600094 	beqz	v1,10001234 <vsprintf+0x2cc>
10000fe4:	2403006c 	li	v1,108
10000fe8:	00009821 	move	s3,zero
10000fec:	00131840 	sll	v1,s3,0x1
10000ff0:	001398c0 	sll	s3,s3,0x3
10000ff4:	00739821 	addu	s3,v1,s3
10000ff8:	26310001 	addiu	s1,s1,1
10000ffc:	02629821 	addu	s3,s3,v0
10001000:	82220000 	lb	v0,0(s1)
10001004:	00000000 	nop
10001008:	2443ffd0 	addiu	v1,v0,-48
1000100c:	306300ff 	andi	v1,v1,0xff
10001010:	2c63000a 	sltiu	v1,v1,10
10001014:	1460fff5 	bnez	v1,10000fec <vsprintf+0x84>
10001018:	2673ffd0 	addiu	s3,s3,-48
1000101c:	2403006c 	li	v1,108
10001020:	10430086 	beq	v0,v1,1000123c <vsprintf+0x2d4>
10001024:	00000000 	nop
10001028:	2442ffa8 	addiu	v0,v0,-88
1000102c:	304200ff 	andi	v0,v0,0xff
10001030:	2c430021 	sltiu	v1,v0,33
10001034:	1060000c 	beqz	v1,10001068 <vsprintf+0x100>
10001038:	3c031000 	lui	v1,0x1000
1000103c:	00021080 	sll	v0,v0,0x2
10001040:	24632d60 	addiu	v1,v1,11616
10001044:	00621021 	addu	v0,v1,v0
10001048:	8c420000 	lw	v0,0(v0)
1000104c:	00000000 	nop
10001050:	00400008 	jr	v0
10001054:	00000000 	nop
10001058:	83c50003 	lb	a1,3(s8)
1000105c:	27de0004 	addiu	s8,s8,4
10001060:	0c0003ca 	jal	10000f28 <printchar>
10001064:	02002021 	move	a0,s0
10001068:	82250001 	lb	a1,1(s1)
1000106c:	00000000 	nop
10001070:	14a0ffcf 	bnez	a1,10000fb0 <vsprintf+0x48>
10001074:	26310001 	addiu	s1,s1,1
10001078:	02002021 	move	a0,s0
1000107c:	0c0003ca 	jal	10000f28 <printchar>
10001080:	00002821 	move	a1,zero
10001084:	8fbf0044 	lw	ra,68(sp)
10001088:	00001021 	move	v0,zero
1000108c:	8fbe0040 	lw	s8,64(sp)
10001090:	8fb7003c 	lw	s7,60(sp)
10001094:	8fb60038 	lw	s6,56(sp)
10001098:	8fb50034 	lw	s5,52(sp)
1000109c:	8fb40030 	lw	s4,48(sp)
100010a0:	8fb3002c 	lw	s3,44(sp)
100010a4:	8fb20028 	lw	s2,40(sp)
100010a8:	8fb10024 	lw	s1,36(sp)
100010ac:	8fb00020 	lw	s0,32(sp)
100010b0:	03e00008 	jr	ra
100010b4:	27bd0048 	addiu	sp,sp,72
100010b8:	2403000a 	li	v1,10
100010bc:	8fd20000 	lw	s2,0(s8)
100010c0:	00000000 	nop
100010c4:	1640004b 	bnez	s2,100011f4 <vsprintf+0x28c>
100010c8:	27d50004 	addiu	s5,s8,4
100010cc:	24020030 	li	v0,48
100010d0:	a3a20010 	sb	v0,16(sp)
100010d4:	02a0f021 	move	s8,s5
100010d8:	00009021 	move	s2,zero
100010dc:	24020001 	li	v0,1
100010e0:	27b60010 	addiu	s6,sp,16
100010e4:	02629823 	subu	s3,s3,v0
100010e8:	1a600008 	blez	s3,1000110c <vsprintf+0x1a4>
100010ec:	2673ffff 	addiu	s3,s3,-1
100010f0:	2415ffff 	li	s5,-1
100010f4:	2673ffff 	addiu	s3,s3,-1
100010f8:	02002021 	move	a0,s0
100010fc:	0c0003ca 	jal	10000f28 <printchar>
10001100:	02802821 	move	a1,s4
10001104:	1675fffc 	bne	s3,s5,100010f8 <vsprintf+0x190>
10001108:	2673ffff 	addiu	s3,s3,-1
1000110c:	24130001 	li	s3,1
10001110:	02d29021 	addu	s2,s6,s2
10001114:	02769823 	subu	s3,s3,s6
10001118:	82450000 	lb	a1,0(s2)
1000111c:	02002021 	move	a0,s0
10001120:	0c0003ca 	jal	10000f28 <printchar>
10001124:	2652ffff 	addiu	s2,s2,-1
10001128:	02721021 	addu	v0,s3,s2
1000112c:	1c40fffa 	bgtz	v0,10001118 <vsprintf+0x1b0>
10001130:	00000000 	nop
10001134:	82250001 	lb	a1,1(s1)
10001138:	00000000 	nop
1000113c:	14a0ff9c 	bnez	a1,10000fb0 <vsprintf+0x48>
10001140:	26310001 	addiu	s1,s1,1
10001144:	0800041f 	j	1000107c <vsprintf+0x114>
10001148:	02002021 	move	a0,s0
1000114c:	8fd20000 	lw	s2,0(s8)
10001150:	00000000 	nop
10001154:	12400047 	beqz	s2,10001274 <vsprintf+0x30c>
10001158:	27de0004 	addiu	s8,s8,4
1000115c:	82450000 	lb	a1,0(s2)
10001160:	00000000 	nop
10001164:	10a0000d 	beqz	a1,1000119c <vsprintf+0x234>
10001168:	00000000 	nop
1000116c:	1260ffbe 	beqz	s3,10001068 <vsprintf+0x100>
10001170:	26520001 	addiu	s2,s2,1
10001174:	08000461 	j	10001184 <vsprintf+0x21c>
10001178:	00000000 	nop
1000117c:	1260ffba 	beqz	s3,10001068 <vsprintf+0x100>
10001180:	26520001 	addiu	s2,s2,1
10001184:	0c0003ca 	jal	10000f28 <printchar>
10001188:	02002021 	move	a0,s0
1000118c:	82450000 	lb	a1,0(s2)
10001190:	00000000 	nop
10001194:	14a0fff9 	bnez	a1,1000117c <vsprintf+0x214>
10001198:	2673ffff 	addiu	s3,s3,-1
1000119c:	1a60ffb2 	blez	s3,10001068 <vsprintf+0x100>
100011a0:	2673ffff 	addiu	s3,s3,-1
100011a4:	2412ffff 	li	s2,-1
100011a8:	2673ffff 	addiu	s3,s3,-1
100011ac:	02002021 	move	a0,s0
100011b0:	0c0003ca 	jal	10000f28 <printchar>
100011b4:	02802821 	move	a1,s4
100011b8:	1672fffc 	bne	s3,s2,100011ac <vsprintf+0x244>
100011bc:	2673ffff 	addiu	s3,s3,-1
100011c0:	26730001 	addiu	s3,s3,1
100011c4:	82250001 	lb	a1,1(s1)
100011c8:	00000000 	nop
100011cc:	14a0ff78 	bnez	a1,10000fb0 <vsprintf+0x48>
100011d0:	26310001 	addiu	s1,s1,1
100011d4:	0800041f 	j	1000107c <vsprintf+0x114>
100011d8:	02002021 	move	a0,s0
100011dc:	8fd20000 	lw	s2,0(s8)
100011e0:	00000000 	nop
100011e4:	0640001b 	bltz	s2,10001254 <vsprintf+0x2ec>
100011e8:	27d50004 	addiu	s5,s8,4
100011ec:	1240ffb7 	beqz	s2,100010cc <vsprintf+0x164>
100011f0:	2403000a 	li	v1,10
100011f4:	02a0f021 	move	s8,s5
100011f8:	00001021 	move	v0,zero
100011fc:	27b60010 	addiu	s6,sp,16
10001200:	0243001b 	divu	zero,s2,v1
10001204:	02c22821 	addu	a1,s6,v0
10001208:	24420001 	addiu	v0,v0,1
1000120c:	00002010 	mfhi	a0
10001210:	02e42021 	addu	a0,s7,a0
10001214:	90840000 	lbu	a0,0(a0)
10001218:	00009012 	mflo	s2
1000121c:	1640fff8 	bnez	s2,10001200 <vsprintf+0x298>
10001220:	a0a40000 	sb	a0,0(a1)
10001224:	08000439 	j	100010e4 <vsprintf+0x17c>
10001228:	2452ffff 	addiu	s2,v0,-1
1000122c:	0800042f 	j	100010bc <vsprintf+0x154>
10001230:	24030010 	li	v1,16
10001234:	1443ff7c 	bne	v0,v1,10001028 <vsprintf+0xc0>
10001238:	2413ffff 	li	s3,-1
1000123c:	82220001 	lb	v0,1(s1)
10001240:	0800040a 	j	10001028 <vsprintf+0xc0>
10001244:	26310001 	addiu	s1,s1,1
10001248:	82220002 	lb	v0,2(s1)
1000124c:	080003f5 	j	10000fd4 <vsprintf+0x6c>
10001250:	26310002 	addiu	s1,s1,2
10001254:	02002021 	move	a0,s0
10001258:	0c0003ca 	jal	10000f28 <printchar>
1000125c:	2405002d 	li	a1,45
10001260:	00129023 	negu	s2,s2
10001264:	2673ffff 	addiu	s3,s3,-1
10001268:	02a0f021 	move	s8,s5
1000126c:	0800047e 	j	100011f8 <vsprintf+0x290>
10001270:	2403000a 	li	v1,10
10001274:	3c021000 	lui	v0,0x1000
10001278:	08000457 	j	1000115c <vsprintf+0x1f4>
1000127c:	24522cfc 	addiu	s2,v0,11516

10001280 <strncpy>:
10001280:	18c0000f 	blez	a2,100012c0 <strncpy+0x40>
10001284:	00801021 	move	v0,a0
10001288:	80a40000 	lb	a0,0(a1)
1000128c:	24430001 	addiu	v1,v0,1
10001290:	10800018 	beqz	a0,100012f4 <strncpy+0x74>
10001294:	a0440000 	sb	a0,0(v0)
10001298:	080004ad 	j	100012b4 <strncpy+0x34>
1000129c:	00002021 	move	a0,zero
100012a0:	80e70000 	lb	a3,0(a3)
100012a4:	00000000 	nop
100012a8:	a0670000 	sb	a3,0(v1)
100012ac:	10e00006 	beqz	a3,100012c8 <strncpy+0x48>
100012b0:	24630001 	addiu	v1,v1,1
100012b4:	24840001 	addiu	a0,a0,1
100012b8:	1486fff9 	bne	a0,a2,100012a0 <strncpy+0x20>
100012bc:	00a43821 	addu	a3,a1,a0
100012c0:	03e00008 	jr	ra
100012c4:	00000000 	nop
100012c8:	24840001 	addiu	a0,a0,1
100012cc:	0086282a 	slt	a1,a0,a2
100012d0:	10a0fffb 	beqz	a1,100012c0 <strncpy+0x40>
100012d4:	00663021 	addu	a2,v1,a2
100012d8:	00c42023 	subu	a0,a2,a0
100012dc:	a0600000 	sb	zero,0(v1)
100012e0:	24630001 	addiu	v1,v1,1
100012e4:	1464fffd 	bne	v1,a0,100012dc <strncpy+0x5c>
100012e8:	00000000 	nop
100012ec:	03e00008 	jr	ra
100012f0:	00000000 	nop
100012f4:	080004b3 	j	100012cc <strncpy+0x4c>
100012f8:	24040001 	li	a0,1

100012fc <memset>:
100012fc:	10c00007 	beqz	a2,1000131c <memset+0x20>
10001300:	00801021 	move	v0,a0
10001304:	30a500ff 	andi	a1,a1,0xff
10001308:	00801821 	move	v1,a0
1000130c:	24c6ffff 	addiu	a2,a2,-1
10001310:	a0650000 	sb	a1,0(v1)
10001314:	14c0fffd 	bnez	a2,1000130c <memset+0x10>
10001318:	24630001 	addiu	v1,v1,1
1000131c:	03e00008 	jr	ra
10001320:	00000000 	nop

10001324 <printf>:
10001324:	27bdffe0 	addiu	sp,sp,-32
10001328:	27a20024 	addiu	v0,sp,36
1000132c:	00801821 	move	v1,a0
10001330:	afa50024 	sw	a1,36(sp)
10001334:	afa60028 	sw	a2,40(sp)
10001338:	00002021 	move	a0,zero
1000133c:	00602821 	move	a1,v1
10001340:	00403021 	move	a2,v0
10001344:	afbf001c 	sw	ra,28(sp)
10001348:	afa7002c 	sw	a3,44(sp)
1000134c:	0c0003da 	jal	10000f68 <vsprintf>
10001350:	afa20010 	sw	v0,16(sp)
10001354:	8fbf001c 	lw	ra,28(sp)
10001358:	00000000 	nop
1000135c:	03e00008 	jr	ra
10001360:	27bd0020 	addiu	sp,sp,32

10001364 <__udivmoddi4>:
10001364:	27bdfff8 	addiu	sp,sp,-8
10001368:	00c71025 	or	v0,a2,a3
1000136c:	afb10004 	sw	s1,4(sp)
10001370:	afb00000 	sw	s0,0(sp)
10001374:	8fb80018 	lw	t8,24(sp)
10001378:	10400035 	beqz	v0,10001450 <__udivmoddi4+0xec>
1000137c:	24090001 	li	t1,1
10001380:	04c0000e 	bltz	a2,100013bc <__udivmoddi4+0x58>
10001384:	00004021 	move	t0,zero
10001388:	00075fc2 	srl	t3,a3,0x1f
1000138c:	00063040 	sll	a2,a2,0x1
10001390:	000957c2 	srl	t2,t1,0x1f
10001394:	00081840 	sll	v1,t0,0x1
10001398:	00091040 	sll	v0,t1,0x1
1000139c:	01663025 	or	a2,t3,a2
100013a0:	01434025 	or	t0,t2,v1
100013a4:	00073840 	sll	a3,a3,0x1
100013a8:	04c1fff7 	bgez	a2,10001388 <__udivmoddi4+0x24>
100013ac:	00404821 	move	t1,v0
100013b0:	00481025 	or	v0,v0,t0
100013b4:	1040002c 	beqz	v0,10001468 <__udivmoddi4+0x104>
100013b8:	00001821 	move	v1,zero
100013bc:	00001821 	move	v1,zero
100013c0:	00001021 	move	v0,zero
100013c4:	0086782b 	sltu	t7,a0,a2
100013c8:	00087042 	srl	t6,t0,0x1
100013cc:	00086fc0 	sll	t5,t0,0x1f
100013d0:	00095042 	srl	t2,t1,0x1
100013d4:	000667c0 	sll	t4,a2,0x1f
100013d8:	15e0000f 	bnez	t7,10001418 <__udivmoddi4+0xb4>
100013dc:	00075842 	srl	t3,a3,0x1
100013e0:	00a77823 	subu	t7,a1,a3
100013e4:	00694821 	addu	t1,v1,t1
100013e8:	00484021 	addu	t0,v0,t0
100013ec:	0123882b 	sltu	s1,t1,v1
100013f0:	00afc82b 	sltu	t9,a1,t7
100013f4:	00868023 	subu	s0,a0,a2
100013f8:	14c40003 	bne	a2,a0,10001408 <__udivmoddi4+0xa4>
100013fc:	00a7382b 	sltu	a3,a1,a3
10001400:	14e00005 	bnez	a3,10001418 <__udivmoddi4+0xb4>
10001404:	00000000 	nop
10001408:	02281021 	addu	v0,s1,t0
1000140c:	02192023 	subu	a0,s0,t9
10001410:	01e02821 	move	a1,t7
10001414:	01201821 	move	v1,t1
10001418:	01aa4825 	or	t1,t5,t2
1000141c:	01c95025 	or	t2,t6,t1
10001420:	01c04021 	move	t0,t6
10001424:	00063042 	srl	a2,a2,0x1
10001428:	1540ffe6 	bnez	t2,100013c4 <__udivmoddi4+0x60>
1000142c:	018b3825 	or	a3,t4,t3
10001430:	13000003 	beqz	t8,10001440 <__udivmoddi4+0xdc>
10001434:	00000000 	nop
10001438:	af040000 	sw	a0,0(t8)
1000143c:	af050004 	sw	a1,4(t8)
10001440:	8fb10004 	lw	s1,4(sp)
10001444:	8fb00000 	lw	s0,0(sp)
10001448:	03e00008 	jr	ra
1000144c:	27bd0008 	addiu	sp,sp,8
10001450:	24030001 	li	v1,1
10001454:	00001021 	move	v0,zero
10001458:	8fb10004 	lw	s1,4(sp)
1000145c:	8fb00000 	lw	s0,0(sp)
10001460:	03e00008 	jr	ra
10001464:	27bd0008 	addiu	sp,sp,8
10001468:	0800050c 	j	10001430 <__udivmoddi4+0xcc>
1000146c:	00001021 	move	v0,zero

10001470 <__udivdi3>:
10001470:	27bdffe0 	addiu	sp,sp,-32
10001474:	afbf001c 	sw	ra,28(sp)
10001478:	0c0004d9 	jal	10001364 <__udivmoddi4>
1000147c:	afa00010 	sw	zero,16(sp)
10001480:	8fbf001c 	lw	ra,28(sp)
10001484:	00000000 	nop
10001488:	03e00008 	jr	ra
1000148c:	27bd0020 	addiu	sp,sp,32

10001490 <main>:
10001490:	27bdffd0 	addiu	sp,sp,-48
10001494:	afbf002c 	sw	ra,44(sp)
10001498:	afb40028 	sw	s4,40(sp)
1000149c:	afb30024 	sw	s3,36(sp)
100014a0:	afb20020 	sw	s2,32(sp)
100014a4:	afb1001c 	sw	s1,28(sp)
100014a8:	0c0000b3 	jal	100002cc <_hardware_init>
100014ac:	afb00018 	sw	s0,24(sp)
100014b0:	0c0007d9 	jal	10001f64 <hf_schedlock>
100014b4:	24040001 	li	a0,1
100014b8:	0c00007b 	jal	100001ec <_interrupt_set>
100014bc:	00002021 	move	a0,zero
100014c0:	3c041000 	lui	a0,0x1000
100014c4:	0c0001f7 	jal	100007dc <kprintf>
100014c8:	24842de4 	addiu	a0,a0,11748
100014cc:	3c021001 	lui	v0,0x1001
100014d0:	3c03baad 	lui	v1,0xbaad
100014d4:	8c440720 	lw	a0,1824(v0)
100014d8:	3463d00d 	ori	v1,v1,0xd00d
100014dc:	1083000c 	beq	a0,v1,10001510 <main+0x80>
100014e0:	3c041000 	lui	a0,0x1000
100014e4:	0c00076f 	jal	10001dbc <panic>
100014e8:	24040001 	li	a0,1
100014ec:	8fbf002c 	lw	ra,44(sp)
100014f0:	00001021 	move	v0,zero
100014f4:	8fb40028 	lw	s4,40(sp)
100014f8:	8fb30024 	lw	s3,36(sp)
100014fc:	8fb20020 	lw	s2,32(sp)
10001500:	8fb1001c 	lw	s1,28(sp)
10001504:	8fb00018 	lw	s0,24(sp)
10001508:	03e00008 	jr	ra
1000150c:	27bd0030 	addiu	sp,sp,48
10001510:	24842df8 	addiu	a0,a0,11768
10001514:	0c0001f7 	jal	100007dc <kprintf>
10001518:	ac400720 	sw	zero,1824(v0)
1000151c:	3c061000 	lui	a2,0x1000
10001520:	3c071000 	lui	a3,0x1000
10001524:	3c051000 	lui	a1,0x1000
10001528:	3c041000 	lui	a0,0x1000
1000152c:	3c021000 	lui	v0,0x1000
10001530:	24c62e64 	addiu	a2,a2,11876
10001534:	24e72e6c 	addiu	a3,a3,11884
10001538:	24a52e58 	addiu	a1,a1,11864
1000153c:	24842e38 	addiu	a0,a0,11832
10001540:	24422e78 	addiu	v0,v0,11896
10001544:	0c0001f7 	jal	100007dc <kprintf>
10001548:	afa20010 	sw	v0,16(sp)
1000154c:	3c041000 	lui	a0,0x1000
10001550:	0c0001f7 	jal	100007dc <kprintf>
10001554:	24842e84 	addiu	a0,a0,11908
10001558:	3c041000 	lui	a0,0x1000
1000155c:	0c0001f7 	jal	100007dc <kprintf>
10001560:	24842ebc 	addiu	a0,a0,11964
10001564:	3c041000 	lui	a0,0x1000
10001568:	3c051000 	lui	a1,0x1000
1000156c:	24842efc 	addiu	a0,a0,12028
10001570:	0c0001f7 	jal	100007dc <kprintf>
10001574:	24a52f10 	addiu	a1,a1,12048
10001578:	3c041000 	lui	a0,0x1000
1000157c:	24842f1c 	addiu	a0,a0,12060
10001580:	0c0001f7 	jal	100007dc <kprintf>
10001584:	240561a8 	li	a1,25000
10001588:	3c041000 	lui	a0,0x1000
1000158c:	24842f34 	addiu	a0,a0,12084
10001590:	0c0001f7 	jal	100007dc <kprintf>
10001594:	240528f0 	li	a1,10480
10001598:	3c041000 	lui	a0,0x1000
1000159c:	3c050007 	lui	a1,0x7
100015a0:	24842f4c 	addiu	a0,a0,12108
100015a4:	0c0001f7 	jal	100007dc <kprintf>
100015a8:	34a5a120 	ori	a1,a1,0xa120
100015ac:	3c041000 	lui	a0,0x1000
100015b0:	24842f68 	addiu	a0,a0,12136
100015b4:	2405001e 	li	a1,30
100015b8:	0c0001f7 	jal	100007dc <kprintf>
100015bc:	3c141001 	lui	s4,0x1001
100015c0:	0c0000c1 	jal	10000304 <_vm_init>
100015c4:	00008021 	move	s0,zero
100015c8:	269407ec 	addiu	s4,s4,2028
100015cc:	3c111009 	lui	s1,0x1009
100015d0:	2413ffff 	li	s3,-1
100015d4:	2412001e 	li	s2,30
100015d8:	00101880 	sll	v1,s0,0x2
100015dc:	00101100 	sll	v0,s0,0x4
100015e0:	00621021 	addu	v0,v1,v0
100015e4:	00501023 	subu	v0,v0,s0
100015e8:	000210c0 	sll	v0,v0,0x3
100015ec:	02821021 	addu	v0,s4,v0
100015f0:	24440002 	addiu	a0,v0,2
100015f4:	00002821 	move	a1,zero
100015f8:	24060014 	li	a2,20
100015fc:	a4530000 	sh	s3,0(v0)
10001600:	0c0004bf 	jal	100012fc <memset>
10001604:	ae22bbac 	sw	v0,-17492(s1)
10001608:	8e22bbac 	lw	v0,-17492(s1)
1000160c:	26100001 	addiu	s0,s0,1
10001610:	a0400016 	sb	zero,22(v0)
10001614:	a0400017 	sb	zero,23(v0)
10001618:	a0400018 	sb	zero,24(v0)
1000161c:	ac40001c 	sw	zero,28(v0)
10001620:	ac400020 	sw	zero,32(v0)
10001624:	ac400024 	sw	zero,36(v0)
10001628:	ac400028 	sw	zero,40(v0)
1000162c:	a440002c 	sh	zero,44(v0)
10001630:	a440002e 	sh	zero,46(v0)
10001634:	a4400030 	sh	zero,48(v0)
10001638:	a4400032 	sh	zero,50(v0)
1000163c:	a4400034 	sh	zero,52(v0)
10001640:	ac400088 	sw	zero,136(v0)
10001644:	ac40008c 	sw	zero,140(v0)
10001648:	ac400090 	sw	zero,144(v0)
1000164c:	1612ffe2 	bne	s0,s2,100015d8 <main+0x148>
10001650:	ac400094 	sw	zero,148(v0)
10001654:	3c051009 	lui	a1,0x1009
10001658:	a4a0bbb4 	sh	zero,-17484(a1)
1000165c:	3c051009 	lui	a1,0x1009
10001660:	a4a0bba8 	sh	zero,-17496(a1)
10001664:	3c051009 	lui	a1,0x1009
10001668:	a4a0bbc4 	sh	zero,-17468(a1)
1000166c:	3c051000 	lui	a1,0x1000
10001670:	3c031009 	lui	v1,0x1009
10001674:	24a52670 	addiu	a1,a1,9840
10001678:	2462badc 	addiu	v0,v1,-17700
1000167c:	ac65badc 	sw	a1,-17700(v1)
10001680:	3c031000 	lui	v1,0x1000
10001684:	24632518 	addiu	v1,v1,9496
10001688:	ac430004 	sw	v1,4(v0)
1000168c:	2404001e 	li	a0,30
10001690:	ac400008 	sw	zero,8(v0)
10001694:	ac40000c 	sw	zero,12(v0)
10001698:	ac400010 	sw	zero,16(v0)
1000169c:	0c0007dd 	jal	10001f74 <hf_queue_create>
100016a0:	ac400014 	sw	zero,20(v0)
100016a4:	3c031009 	lui	v1,0x1009
100016a8:	1040001f 	beqz	v0,10001728 <main+0x298>
100016ac:	ac62bbbc 	sw	v0,-17476(v1)
100016b0:	0c0007dd 	jal	10001f74 <hf_queue_create>
100016b4:	2404001e 	li	a0,30
100016b8:	3c031009 	lui	v1,0x1009
100016bc:	1040001e 	beqz	v0,10001738 <main+0x2a8>
100016c0:	ac62bbc8 	sw	v0,-17464(v1)
100016c4:	0c0007dd 	jal	10001f74 <hf_queue_create>
100016c8:	2404001e 	li	a0,30
100016cc:	3c031009 	lui	v1,0x1009
100016d0:	10400011 	beqz	v0,10001718 <main+0x288>
100016d4:	ac62bbc0 	sw	v0,-17472(v1)
100016d8:	0c0000cd 	jal	10000334 <_sched_init>
100016dc:	00000000 	nop
100016e0:	0c0000d0 	jal	10000340 <_timer_init>
100016e4:	00000000 	nop
100016e8:	0c000162 	jal	10000588 <_timer_reset>
100016ec:	00000000 	nop
100016f0:	0c0000e5 	jal	10000394 <_irq_init>
100016f4:	00000000 	nop
100016f8:	0c0000e8 	jal	100003a0 <_device_init>
100016fc:	00000000 	nop
10001700:	0c0000f0 	jal	100003c0 <_task_init>
10001704:	00000000 	nop
10001708:	0c00076f 	jal	10001dbc <panic>
1000170c:	00002021 	move	a0,zero
10001710:	0800053b 	j	100014ec <main+0x5c>
10001714:	00000000 	nop
10001718:	0c00076f 	jal	10001dbc <panic>
1000171c:	24040004 	li	a0,4
10001720:	080005b6 	j	100016d8 <main+0x248>
10001724:	00000000 	nop
10001728:	0c00076f 	jal	10001dbc <panic>
1000172c:	24040004 	li	a0,4
10001730:	080005ac 	j	100016b0 <main+0x220>
10001734:	00000000 	nop
10001738:	0c00076f 	jal	10001dbc <panic>
1000173c:	24040004 	li	a0,4
10001740:	080005b1 	j	100016c4 <main+0x234>
10001744:	00000000 	nop

10001748 <hf_free>:
10001748:	27bdffe0 	addiu	sp,sp,-32
1000174c:	afb00014 	sw	s0,20(sp)
10001750:	3c101001 	lui	s0,0x1001
10001754:	afb10018 	sw	s1,24(sp)
10001758:	00808821 	move	s1,a0
1000175c:	afbf001c 	sw	ra,28(sp)
10001760:	0c000656 	jal	10001958 <hf_mtxlock>
10001764:	260407e8 	addiu	a0,s0,2024
10001768:	8e25fffc 	lw	a1,-4(s1)
1000176c:	3c021009 	lui	v0,0x1009
10001770:	8c43bbb8 	lw	v1,-17480(v0)
10001774:	2404fffe 	li	a0,-2
10001778:	00a42024 	and	a0,a1,a0
1000177c:	3c051009 	lui	a1,0x1009
10001780:	8ca6bbd0 	lw	a2,-17456(a1)
10001784:	24630008 	addiu	v1,v1,8
10001788:	ae24fffc 	sw	a0,-4(s1)
1000178c:	00641821 	addu	v1,v1,a0
10001790:	3c051009 	lui	a1,0x1009
10001794:	260407e8 	addiu	a0,s0,2024
10001798:	8fbf001c 	lw	ra,28(sp)
1000179c:	8fb10018 	lw	s1,24(sp)
100017a0:	8fb00014 	lw	s0,20(sp)
100017a4:	27bd0020 	addiu	sp,sp,32
100017a8:	aca6bbcc 	sw	a2,-17460(a1)
100017ac:	0800066f 	j	100019bc <hf_mtxunlock>
100017b0:	ac43bbb8 	sw	v1,-17480(v0)

100017b4 <hf_malloc>:
100017b4:	27bdffe0 	addiu	sp,sp,-32
100017b8:	afb20018 	sw	s2,24(sp)
100017bc:	3c121001 	lui	s2,0x1001
100017c0:	afb10014 	sw	s1,20(sp)
100017c4:	2402fffc 	li	v0,-4
100017c8:	24910003 	addiu	s1,a0,3
100017cc:	264407e8 	addiu	a0,s2,2024
100017d0:	afb00010 	sw	s0,16(sp)
100017d4:	afbf001c 	sw	ra,28(sp)
100017d8:	0c000656 	jal	10001958 <hf_mtxlock>
100017dc:	02228824 	and	s1,s1,v0
100017e0:	3c071009 	lui	a3,0x1009
100017e4:	8ce3bbcc 	lw	v1,-17460(a3)
100017e8:	2406fff8 	li	a2,-8
100017ec:	00608021 	move	s0,v1
100017f0:	26250008 	addiu	a1,s1,8
100017f4:	8c640000 	lw	a0,0(v1)
100017f8:	00000000 	nop
100017fc:	1080003a 	beqz	a0,100018e8 <hf_malloc+0x134>
10001800:	00000000 	nop
10001804:	8c620004 	lw	v0,4(v1)
10001808:	00000000 	nop
1000180c:	30420001 	andi	v0,v0,0x1
10001810:	1040000a 	beqz	v0,1000183c <hf_malloc+0x88>
10001814:	00000000 	nop
10001818:	0800060a 	j	10001828 <hf_malloc+0x74>
1000181c:	00801821 	move	v1,a0
10001820:	8c630000 	lw	v1,0(v1)
10001824:	00000000 	nop
10001828:	8c620004 	lw	v0,4(v1)
1000182c:	00000000 	nop
10001830:	30420001 	andi	v0,v0,0x1
10001834:	1440fffa 	bnez	v0,10001820 <hf_malloc+0x6c>
10001838:	00608021 	move	s0,v1
1000183c:	1440000b 	bnez	v0,1000186c <hf_malloc+0xb8>
10001840:	00d01023 	subu	v0,a2,s0
10001844:	8c640000 	lw	a0,0(v1)
10001848:	00000000 	nop
1000184c:	10800007 	beqz	a0,1000186c <hf_malloc+0xb8>
10001850:	00d01023 	subu	v0,a2,s0
10001854:	8c820004 	lw	v0,4(a0)
10001858:	00000000 	nop
1000185c:	30420001 	andi	v0,v0,0x1
10001860:	1040fff8 	beqz	v0,10001844 <hf_malloc+0x90>
10001864:	00801821 	move	v1,a0
10001868:	00d01023 	subu	v0,a2,s0
1000186c:	00621021 	addu	v0,v1,v0
10001870:	0045202b 	sltu	a0,v0,a1
10001874:	ae020004 	sw	v0,4(s0)
10001878:	1480ffde 	bnez	a0,100017f4 <hf_malloc+0x40>
1000187c:	ae030000 	sw	v1,0(s0)
10001880:	3c021009 	lui	v0,0x1009
10001884:	8c48bbb8 	lw	t0,-17480(v0)
10001888:	36240001 	ori	a0,s1,0x1
1000188c:	2409fff8 	li	t1,-8
10001890:	2406fffe 	li	a2,-2
10001894:	01314823 	subu	t1,t1,s1
10001898:	00863024 	and	a2,a0,a2
1000189c:	02052821 	addu	a1,s0,a1
100018a0:	01263021 	addu	a2,t1,a2
100018a4:	2508fff8 	addiu	t0,t0,-8
100018a8:	acf0bbcc 	sw	s0,-17460(a3)
100018ac:	ae040004 	sw	a0,4(s0)
100018b0:	ae050000 	sw	a1,0(s0)
100018b4:	01118823 	subu	s1,t0,s1
100018b8:	aca30000 	sw	v1,0(a1)
100018bc:	aca60004 	sw	a2,4(a1)
100018c0:	264407e8 	addiu	a0,s2,2024
100018c4:	0c00066f 	jal	100019bc <hf_mtxunlock>
100018c8:	ac51bbb8 	sw	s1,-17480(v0)
100018cc:	26020008 	addiu	v0,s0,8
100018d0:	8fbf001c 	lw	ra,28(sp)
100018d4:	8fb20018 	lw	s2,24(sp)
100018d8:	8fb10014 	lw	s1,20(sp)
100018dc:	8fb00010 	lw	s0,16(sp)
100018e0:	03e00008 	jr	ra
100018e4:	27bd0020 	addiu	sp,sp,32
100018e8:	0c00066f 	jal	100019bc <hf_mtxunlock>
100018ec:	264407e8 	addiu	a0,s2,2024
100018f0:	08000634 	j	100018d0 <hf_malloc+0x11c>
100018f4:	00001021 	move	v0,zero

100018f8 <heapinit>:
100018f8:	00801021 	move	v0,a0
100018fc:	2403fffc 	li	v1,-4
10001900:	24a40003 	addiu	a0,a1,3
10001904:	00831824 	and	v1,a0,v1
10001908:	00452821 	addu	a1,v0,a1
1000190c:	24a4fff8 	addiu	a0,a1,-8
10001910:	2463fff0 	addiu	v1,v1,-16
10001914:	ac440000 	sw	a0,0(v0)
10001918:	ac430004 	sw	v1,4(v0)
1000191c:	aca0fff8 	sw	zero,-8(a1)
10001920:	aca0fffc 	sw	zero,-4(a1)
10001924:	3c051009 	lui	a1,0x1009
10001928:	8c430004 	lw	v1,4(v0)
1000192c:	aca2bbd0 	sw	v0,-17456(a1)
10001930:	3c041001 	lui	a0,0x1001
10001934:	3c051009 	lui	a1,0x1009
10001938:	aca2bbcc 	sw	v0,-17460(a1)
1000193c:	248407e8 	addiu	a0,a0,2024
10001940:	3c021009 	lui	v0,0x1009
10001944:	08000653 	j	1000194c <hf_mtxinit>
10001948:	ac43bbb8 	sw	v1,-17480(v0)

1000194c <hf_mtxinit>:
1000194c:	ac800000 	sw	zero,0(a0)
10001950:	03e00008 	jr	ra
10001954:	00000000 	nop

10001958 <hf_mtxlock>:
10001958:	27bdffd8 	addiu	sp,sp,-40
1000195c:	afb10020 	sw	s1,32(sp)
10001960:	afb0001c 	sw	s0,28(sp)
10001964:	afbf0024 	sw	ra,36(sp)
10001968:	00808821 	move	s1,a0
1000196c:	24100001 	li	s0,1
10001970:	0c00007b 	jal	100001ec <_interrupt_set>
10001974:	00002021 	move	a0,zero
10001978:	afa20014 	sw	v0,20(sp)
1000197c:	8e220000 	lw	v0,0(s1)
10001980:	00000000 	nop
10001984:	afa20010 	sw	v0,16(sp)
10001988:	ae300000 	sw	s0,0(s1)
1000198c:	8fa40014 	lw	a0,20(sp)
10001990:	0c00007b 	jal	100001ec <_interrupt_set>
10001994:	00000000 	nop
10001998:	8fa20010 	lw	v0,16(sp)
1000199c:	00000000 	nop
100019a0:	1050fff3 	beq	v0,s0,10001970 <hf_mtxlock+0x18>
100019a4:	00000000 	nop
100019a8:	8fbf0024 	lw	ra,36(sp)
100019ac:	8fb10020 	lw	s1,32(sp)
100019b0:	8fb0001c 	lw	s0,28(sp)
100019b4:	03e00008 	jr	ra
100019b8:	27bd0028 	addiu	sp,sp,40

100019bc <hf_mtxunlock>:
100019bc:	ac800000 	sw	zero,0(a0)
100019c0:	03e00008 	jr	ra
100019c4:	00000000 	nop

100019c8 <_ni_status>:
100019c8:	3c022000 	lui	v0,0x2000
100019cc:	8c420090 	lw	v0,144(v0)
100019d0:	03e00008 	jr	ra
100019d4:	3042ffff 	andi	v0,v0,0xffff

100019d8 <_ni_read>:
100019d8:	3c022000 	lui	v0,0x2000
100019dc:	8c420070 	lw	v0,112(v0)
100019e0:	03e00008 	jr	ra
100019e4:	3042ffff 	andi	v0,v0,0xffff

100019e8 <ni_ready>:
100019e8:	27bdffe8 	addiu	sp,sp,-24
100019ec:	afbf0014 	sw	ra,20(sp)
100019f0:	0c000672 	jal	100019c8 <_ni_status>
100019f4:	00000000 	nop
100019f8:	8fbf0014 	lw	ra,20(sp)
100019fc:	30420001 	andi	v0,v0,0x1
10001a00:	03e00008 	jr	ra
10001a04:	27bd0018 	addiu	sp,sp,24

10001a08 <ni_flush>:
10001a08:	27bdffe0 	addiu	sp,sp,-32
10001a0c:	afb00010 	sw	s0,16(sp)
10001a10:	3090ffff 	andi	s0,a0,0xffff
10001a14:	00002021 	move	a0,zero
10001a18:	afb20018 	sw	s2,24(sp)
10001a1c:	afbf001c 	sw	ra,28(sp)
10001a20:	0c00007b 	jal	100001ec <_interrupt_set>
10001a24:	afb10014 	sw	s1,20(sp)
10001a28:	0c000676 	jal	100019d8 <_ni_read>
10001a2c:	00409021 	move	s2,v0
10001a30:	12000006 	beqz	s0,10001a4c <ni_flush+0x44>
10001a34:	00008821 	move	s1,zero
10001a38:	0c000676 	jal	100019d8 <_ni_read>
10001a3c:	26310001 	addiu	s1,s1,1
10001a40:	0230102a 	slt	v0,s1,s0
10001a44:	1440fffc 	bnez	v0,10001a38 <ni_flush+0x30>
10001a48:	00000000 	nop
10001a4c:	0c00007b 	jal	100001ec <_interrupt_set>
10001a50:	02402021 	move	a0,s2
10001a54:	8fbf001c 	lw	ra,28(sp)
10001a58:	8fb20018 	lw	s2,24(sp)
10001a5c:	8fb10014 	lw	s1,20(sp)
10001a60:	8fb00010 	lw	s0,16(sp)
10001a64:	0800067a 	j	100019e8 <ni_ready>
10001a68:	27bd0020 	addiu	sp,sp,32

10001a6c <ni_read_packet>:
10001a6c:	27bdffd8 	addiu	sp,sp,-40
10001a70:	afb00014 	sw	s0,20(sp)
10001a74:	00808021 	move	s0,a0
10001a78:	00002021 	move	a0,zero
10001a7c:	afb30020 	sw	s3,32(sp)
10001a80:	afb10018 	sw	s1,24(sp)
10001a84:	afbf0024 	sw	ra,36(sp)
10001a88:	30b1ffff 	andi	s1,a1,0xffff
10001a8c:	0c00007b 	jal	100001ec <_interrupt_set>
10001a90:	afb2001c 	sw	s2,28(sp)
10001a94:	0c000676 	jal	100019d8 <_ni_read>
10001a98:	00409821 	move	s3,v0
10001a9c:	12200008 	beqz	s1,10001ac0 <ni_read_packet+0x54>
10001aa0:	00118840 	sll	s1,s1,0x1
10001aa4:	00009021 	move	s2,zero
10001aa8:	0c000676 	jal	100019d8 <_ni_read>
10001aac:	00000000 	nop
10001ab0:	02121821 	addu	v1,s0,s2
10001ab4:	26520002 	addiu	s2,s2,2
10001ab8:	1651fffb 	bne	s2,s1,10001aa8 <ni_read_packet+0x3c>
10001abc:	a4620000 	sh	v0,0(v1)
10001ac0:	0c00007b 	jal	100001ec <_interrupt_set>
10001ac4:	02602021 	move	a0,s3
10001ac8:	8fbf0024 	lw	ra,36(sp)
10001acc:	00001021 	move	v0,zero
10001ad0:	8fb30020 	lw	s3,32(sp)
10001ad4:	8fb2001c 	lw	s2,28(sp)
10001ad8:	8fb10018 	lw	s1,24(sp)
10001adc:	8fb00014 	lw	s0,20(sp)
10001ae0:	03e00008 	jr	ra
10001ae4:	27bd0028 	addiu	sp,sp,40

10001ae8 <ni_isr>:
10001ae8:	27bdffe0 	addiu	sp,sp,-32
10001aec:	afb10018 	sw	s1,24(sp)
10001af0:	3c111009 	lui	s1,0x1009
10001af4:	8e24bbd8 	lw	a0,-17448(s1)
10001af8:	afb00014 	sw	s0,20(sp)
10001afc:	afbf001c 	sw	ra,28(sp)
10001b00:	0c000814 	jal	10002050 <hf_queue_remhead>
10001b04:	00000000 	nop
10001b08:	1040004f 	beqz	v0,10001c48 <ni_isr+0x160>
10001b0c:	00408021 	move	s0,v0
10001b10:	00402021 	move	a0,v0
10001b14:	0c00069b 	jal	10001a6c <ni_read_packet>
10001b18:	24050040 	li	a1,64
10001b1c:	96030002 	lhu	v1,2(s0)
10001b20:	2402003e 	li	v0,62
10001b24:	14620035 	bne	v1,v0,10001bfc <ni_isr+0x114>
10001b28:	24020001 	li	v0,1
10001b2c:	96060000 	lhu	a2,0(s0)
10001b30:	00000000 	nop
10001b34:	14c20038 	bne	a2,v0,10001c18 <ni_isr+0x130>
10001b38:	30c500f0 	andi	a1,a2,0xf0
10001b3c:	96050008 	lhu	a1,8(s0)
10001b40:	00000000 	nop
10001b44:	10a0002d 	beqz	a1,10001bfc <ni_isr+0x114>
10001b48:	3402ffff 	li	v0,0xffff
10001b4c:	10a20024 	beq	a1,v0,10001be0 <ni_isr+0xf8>
10001b50:	3c031009 	lui	v1,0x1009
10001b54:	2463baf4 	addiu	v1,v1,-17676
10001b58:	00001021 	move	v0,zero
10001b5c:	080006dc 	j	10001b70 <ni_isr+0x88>
10001b60:	2406001e 	li	a2,30
10001b64:	24420001 	addiu	v0,v0,1
10001b68:	10460045 	beq	v0,a2,10001c80 <ni_isr+0x198>
10001b6c:	00000000 	nop
10001b70:	94640000 	lhu	a0,0(v1)
10001b74:	00000000 	nop
10001b78:	1485fffa 	bne	a0,a1,10001b64 <ni_isr+0x7c>
10001b7c:	24630002 	addiu	v1,v1,2
10001b80:	00021880 	sll	v1,v0,0x2
10001b84:	00022100 	sll	a0,v0,0x4
10001b88:	00642021 	addu	a0,v1,a0
10001b8c:	00821023 	subu	v0,a0,v0
10001b90:	3c041001 	lui	a0,0x1001
10001b94:	000210c0 	sll	v0,v0,0x3
10001b98:	248407ec 	addiu	a0,a0,2028
10001b9c:	00441021 	addu	v0,v0,a0
10001ba0:	8c420088 	lw	v0,136(v0)
10001ba4:	00000000 	nop
10001ba8:	10400035 	beqz	v0,10001c80 <ni_isr+0x198>
10001bac:	3c021009 	lui	v0,0x1009
10001bb0:	2442bb30 	addiu	v0,v0,-17616
10001bb4:	00621821 	addu	v1,v1,v0
10001bb8:	8c640000 	lw	a0,0(v1)
10001bbc:	0c0007fc 	jal	10001ff0 <hf_queue_addtail>
10001bc0:	02002821 	move	a1,s0
10001bc4:	14400029 	bnez	v0,10001c6c <ni_isr+0x184>
10001bc8:	3c041000 	lui	a0,0x1000
10001bcc:	8fbf001c 	lw	ra,28(sp)
10001bd0:	8fb10018 	lw	s1,24(sp)
10001bd4:	8fb00014 	lw	s0,20(sp)
10001bd8:	03e00008 	jr	ra
10001bdc:	27bd0020 	addiu	sp,sp,32
10001be0:	3c021009 	lui	v0,0x1009
10001be4:	8c42bbd4 	lw	v0,-17452(v0)
10001be8:	00000000 	nop
10001bec:	10400003 	beqz	v0,10001bfc <ni_isr+0x114>
10001bf0:	00000000 	nop
10001bf4:	0040f809 	jalr	v0
10001bf8:	02002021 	move	a0,s0
10001bfc:	8e24bbd8 	lw	a0,-17448(s1)
10001c00:	02002821 	move	a1,s0
10001c04:	8fbf001c 	lw	ra,28(sp)
10001c08:	8fb10018 	lw	s1,24(sp)
10001c0c:	8fb00014 	lw	s0,20(sp)
10001c10:	080007fc 	j	10001ff0 <hf_queue_addtail>
10001c14:	27bd0020 	addiu	sp,sp,32
10001c18:	3c041000 	lui	a0,0x1000
10001c1c:	24842f7c 	addiu	a0,a0,12156
10001c20:	00052902 	srl	a1,a1,0x4
10001c24:	0c0001f7 	jal	100007dc <kprintf>
10001c28:	30c6000f 	andi	a2,a2,0xf
10001c2c:	8e24bbd8 	lw	a0,-17448(s1)
10001c30:	02002821 	move	a1,s0
10001c34:	8fbf001c 	lw	ra,28(sp)
10001c38:	8fb10018 	lw	s1,24(sp)
10001c3c:	8fb00014 	lw	s0,20(sp)
10001c40:	080007fc 	j	10001ff0 <hf_queue_addtail>
10001c44:	27bd0020 	addiu	sp,sp,32
10001c48:	3c041000 	lui	a0,0x1000
10001c4c:	0c0001f7 	jal	100007dc <kprintf>
10001c50:	24843038 	addiu	a0,a0,12344
10001c54:	8fbf001c 	lw	ra,28(sp)
10001c58:	8fb10018 	lw	s1,24(sp)
10001c5c:	8fb00014 	lw	s0,20(sp)
10001c60:	24040040 	li	a0,64
10001c64:	08000682 	j	10001a08 <ni_flush>
10001c68:	27bd0020 	addiu	sp,sp,32
10001c6c:	96050008 	lhu	a1,8(s0)
10001c70:	0c0001f7 	jal	100007dc <kprintf>
10001c74:	24842fb0 	addiu	a0,a0,12208
10001c78:	080006ff 	j	10001bfc <ni_isr+0x114>
10001c7c:	00000000 	nop
10001c80:	96060004 	lhu	a2,4(s0)
10001c84:	96070006 	lhu	a3,6(s0)
10001c88:	3c041000 	lui	a0,0x1000
10001c8c:	0c0001f7 	jal	100007dc <kprintf>
10001c90:	24842fec 	addiu	a0,a0,12268
10001c94:	080006ff 	j	10001bfc <ni_isr+0x114>
10001c98:	00000000 	nop

10001c9c <ni_init>:
10001c9c:	3c041000 	lui	a0,0x1000
10001ca0:	27bdffd8 	addiu	sp,sp,-40
10001ca4:	24843064 	addiu	a0,a0,12388
10001ca8:	24050003 	li	a1,3
10001cac:	afbf0024 	sw	ra,36(sp)
10001cb0:	afb10020 	sw	s1,32(sp)
10001cb4:	0c0001f7 	jal	100007dc <kprintf>
10001cb8:	afb0001c 	sw	s0,28(sp)
10001cbc:	3c041000 	lui	a0,0x1000
10001cc0:	24843080 	addiu	a0,a0,12416
10001cc4:	0c0001f7 	jal	100007dc <kprintf>
10001cc8:	24050040 	li	a1,64
10001ccc:	0c0007dd 	jal	10001f74 <hf_queue_create>
10001cd0:	24040040 	li	a0,64
10001cd4:	3c111009 	lui	s1,0x1009
10001cd8:	10400034 	beqz	v0,10001dac <ni_init+0x110>
10001cdc:	ae22bbd8 	sw	v0,-17448(s1)
10001ce0:	3c021009 	lui	v0,0x1009
10001ce4:	2442baf4 	addiu	v0,v0,-17676
10001ce8:	2443003c 	addiu	v1,v0,60
10001cec:	a4400000 	sh	zero,0(v0)
10001cf0:	24420002 	addiu	v0,v0,2
10001cf4:	1443fffd 	bne	v0,v1,10001cec <ni_init+0x50>
10001cf8:	00000000 	nop
10001cfc:	08000746 	j	10001d18 <ni_init+0x7c>
10001d00:	24100040 	li	s0,64
10001d04:	8e24bbd8 	lw	a0,-17448(s1)
10001d08:	0c0007fc 	jal	10001ff0 <hf_queue_addtail>
10001d0c:	00402821 	move	a1,v0
10001d10:	1200000e 	beqz	s0,10001d4c <ni_init+0xb0>
10001d14:	00000000 	nop
10001d18:	0c0005ed 	jal	100017b4 <hf_malloc>
10001d1c:	24040080 	li	a0,128
10001d20:	1440fff8 	bnez	v0,10001d04 <ni_init+0x68>
10001d24:	2610ffff 	addiu	s0,s0,-1
10001d28:	24040004 	li	a0,4
10001d2c:	0c00076f 	jal	10001dbc <panic>
10001d30:	afa20010 	sw	v0,16(sp)
10001d34:	8fa20010 	lw	v0,16(sp)
10001d38:	8e24bbd8 	lw	a0,-17448(s1)
10001d3c:	0c0007fc 	jal	10001ff0 <hf_queue_addtail>
10001d40:	00402821 	move	a1,v0
10001d44:	1600fff4 	bnez	s0,10001d18 <ni_init+0x7c>
10001d48:	00000000 	nop
10001d4c:	0c000682 	jal	10001a08 <ni_flush>
10001d50:	24040040 	li	a0,64
10001d54:	14400008 	bnez	v0,10001d78 <ni_init+0xdc>
10001d58:	00000000 	nop
10001d5c:	3c041000 	lui	a0,0x1000
10001d60:	8fbf0024 	lw	ra,36(sp)
10001d64:	8fb10020 	lw	s1,32(sp)
10001d68:	8fb0001c 	lw	s0,28(sp)
10001d6c:	248430c4 	addiu	a0,a0,12484
10001d70:	080001f7 	j	100007dc <kprintf>
10001d74:	27bd0028 	addiu	sp,sp,40
10001d78:	3c051000 	lui	a1,0x1000
10001d7c:	24040100 	li	a0,256
10001d80:	0c000179 	jal	100005e4 <_irq_register>
10001d84:	24a51ae8 	addiu	a1,a1,6888
10001d88:	0c0001a6 	jal	10000698 <_irq_mask_set>
10001d8c:	24040100 	li	a0,256
10001d90:	3c041000 	lui	a0,0x1000
10001d94:	8fbf0024 	lw	ra,36(sp)
10001d98:	8fb10020 	lw	s1,32(sp)
10001d9c:	8fb0001c 	lw	s0,28(sp)
10001da0:	248430a4 	addiu	a0,a0,12452
10001da4:	080001f7 	j	100007dc <kprintf>
10001da8:	27bd0028 	addiu	sp,sp,40
10001dac:	0c00076f 	jal	10001dbc <panic>
10001db0:	24040004 	li	a0,4
10001db4:	08000739 	j	10001ce4 <ni_init+0x48>
10001db8:	3c021009 	lui	v0,0x1009

10001dbc <panic>:
10001dbc:	27bdffe8 	addiu	sp,sp,-24
10001dc0:	afb00010 	sw	s0,16(sp)
10001dc4:	00808021 	move	s0,a0
10001dc8:	afbf0014 	sw	ra,20(sp)
10001dcc:	0c00007b 	jal	100001ec <_interrupt_set>
10001dd0:	00002021 	move	a0,zero
10001dd4:	3c021009 	lui	v0,0x1009
10001dd8:	9445bba8 	lhu	a1,-17496(v0)
10001ddc:	3c041000 	lui	a0,0x1000
10001de0:	0c0001f7 	jal	100007dc <kprintf>
10001de4:	248430e4 	addiu	a0,a0,12516
10001de8:	2e02000f 	sltiu	v0,s0,15
10001dec:	1440000b 	bnez	v0,10001e1c <panic+0x60>
10001df0:	3c021000 	lui	v0,0x1000
10001df4:	3c041000 	lui	a0,0x1000
10001df8:	0c0001f7 	jal	100007dc <kprintf>
10001dfc:	2484327c 	addiu	a0,a0,12924
10001e00:	3c041000 	lui	a0,0x1000
10001e04:	0c0004c9 	jal	10001324 <printf>
10001e08:	2484328c 	addiu	a0,a0,12940
10001e0c:	0c000175 	jal	100005d4 <_panic>
10001e10:	00000000 	nop
10001e14:	08000785 	j	10001e14 <panic+0x58>
10001e18:	00000000 	nop
10001e1c:	244232a0 	addiu	v0,v0,12960
10001e20:	00108080 	sll	s0,s0,0x2
10001e24:	00508021 	addu	s0,v0,s0
10001e28:	8e020000 	lw	v0,0(s0)
10001e2c:	00000000 	nop
10001e30:	00400008 	jr	v0
10001e34:	00000000 	nop
10001e38:	3c041000 	lui	a0,0x1000
10001e3c:	0c0001f7 	jal	100007dc <kprintf>
10001e40:	24843140 	addiu	a0,a0,12608
10001e44:	08000781 	j	10001e04 <panic+0x48>
10001e48:	3c041000 	lui	a0,0x1000
10001e4c:	3c041000 	lui	a0,0x1000
10001e50:	0c0001f7 	jal	100007dc <kprintf>
10001e54:	24843268 	addiu	a0,a0,12904
10001e58:	08000781 	j	10001e04 <panic+0x48>
10001e5c:	3c041000 	lui	a0,0x1000
10001e60:	3c041000 	lui	a0,0x1000
10001e64:	0c0001f7 	jal	100007dc <kprintf>
10001e68:	2484324c 	addiu	a0,a0,12876
10001e6c:	08000781 	j	10001e04 <panic+0x48>
10001e70:	3c041000 	lui	a0,0x1000
10001e74:	3c041000 	lui	a0,0x1000
10001e78:	0c0001f7 	jal	100007dc <kprintf>
10001e7c:	24843228 	addiu	a0,a0,12840
10001e80:	08000781 	j	10001e04 <panic+0x48>
10001e84:	3c041000 	lui	a0,0x1000
10001e88:	3c041000 	lui	a0,0x1000
10001e8c:	0c0001f7 	jal	100007dc <kprintf>
10001e90:	24843208 	addiu	a0,a0,12808
10001e94:	08000781 	j	10001e04 <panic+0x48>
10001e98:	3c041000 	lui	a0,0x1000
10001e9c:	3c041000 	lui	a0,0x1000
10001ea0:	0c0001f7 	jal	100007dc <kprintf>
10001ea4:	248431e8 	addiu	a0,a0,12776
10001ea8:	08000781 	j	10001e04 <panic+0x48>
10001eac:	3c041000 	lui	a0,0x1000
10001eb0:	3c041000 	lui	a0,0x1000
10001eb4:	0c0001f7 	jal	100007dc <kprintf>
10001eb8:	248431d0 	addiu	a0,a0,12752
10001ebc:	08000781 	j	10001e04 <panic+0x48>
10001ec0:	3c041000 	lui	a0,0x1000
10001ec4:	3c041000 	lui	a0,0x1000
10001ec8:	0c0001f7 	jal	100007dc <kprintf>
10001ecc:	2484319c 	addiu	a0,a0,12700
10001ed0:	08000781 	j	10001e04 <panic+0x48>
10001ed4:	3c041000 	lui	a0,0x1000
10001ed8:	3c041000 	lui	a0,0x1000
10001edc:	0c0001f7 	jal	100007dc <kprintf>
10001ee0:	248431b4 	addiu	a0,a0,12724
10001ee4:	08000781 	j	10001e04 <panic+0x48>
10001ee8:	3c041000 	lui	a0,0x1000
10001eec:	3c041000 	lui	a0,0x1000
10001ef0:	0c0001f7 	jal	100007dc <kprintf>
10001ef4:	24843184 	addiu	a0,a0,12676
10001ef8:	08000781 	j	10001e04 <panic+0x48>
10001efc:	3c041000 	lui	a0,0x1000
10001f00:	3c041000 	lui	a0,0x1000
10001f04:	0c0001f7 	jal	100007dc <kprintf>
10001f08:	24843174 	addiu	a0,a0,12660
10001f0c:	08000781 	j	10001e04 <panic+0x48>
10001f10:	3c041000 	lui	a0,0x1000
10001f14:	3c041000 	lui	a0,0x1000
10001f18:	0c0001f7 	jal	100007dc <kprintf>
10001f1c:	24843154 	addiu	a0,a0,12628
10001f20:	08000781 	j	10001e04 <panic+0x48>
10001f24:	3c041000 	lui	a0,0x1000
10001f28:	3c041000 	lui	a0,0x1000
10001f2c:	0c0001f7 	jal	100007dc <kprintf>
10001f30:	24843130 	addiu	a0,a0,12592
10001f34:	08000781 	j	10001e04 <panic+0x48>
10001f38:	3c041000 	lui	a0,0x1000
10001f3c:	3c041000 	lui	a0,0x1000
10001f40:	0c0001f7 	jal	100007dc <kprintf>
10001f44:	24843114 	addiu	a0,a0,12564
10001f48:	08000781 	j	10001e04 <panic+0x48>
10001f4c:	3c041000 	lui	a0,0x1000
10001f50:	3c041000 	lui	a0,0x1000
10001f54:	0c0001f7 	jal	100007dc <kprintf>
10001f58:	24843100 	addiu	a0,a0,12544
10001f5c:	08000781 	j	10001e04 <panic+0x48>
10001f60:	3c041000 	lui	a0,0x1000

10001f64 <hf_schedlock>:
10001f64:	2c840001 	sltiu	a0,a0,1
10001f68:	3c021009 	lui	v0,0x1009
10001f6c:	03e00008 	jr	ra
10001f70:	a444bbc4 	sh	a0,-17468(v0)

10001f74 <hf_queue_create>:
10001f74:	27bdffe0 	addiu	sp,sp,-32
10001f78:	afb10018 	sw	s1,24(sp)
10001f7c:	00808821 	move	s1,a0
10001f80:	afb00014 	sw	s0,20(sp)
10001f84:	afbf001c 	sw	ra,28(sp)
10001f88:	0c0005ed 	jal	100017b4 <hf_malloc>
10001f8c:	24040014 	li	a0,20
10001f90:	1040000a 	beqz	v0,10001fbc <hf_queue_create+0x48>
10001f94:	00408021 	move	s0,v0
10001f98:	26240001 	addiu	a0,s1,1
10001f9c:	ac440000 	sw	a0,0(v0)
10001fa0:	0c0005ed 	jal	100017b4 <hf_malloc>
10001fa4:	00042080 	sll	a0,a0,0x2
10001fa8:	1040000a 	beqz	v0,10001fd4 <hf_queue_create+0x60>
10001fac:	ae020010 	sw	v0,16(s0)
10001fb0:	ae00000c 	sw	zero,12(s0)
10001fb4:	ae000008 	sw	zero,8(s0)
10001fb8:	ae000004 	sw	zero,4(s0)
10001fbc:	8fbf001c 	lw	ra,28(sp)
10001fc0:	02001021 	move	v0,s0
10001fc4:	8fb10018 	lw	s1,24(sp)
10001fc8:	8fb00014 	lw	s0,20(sp)
10001fcc:	03e00008 	jr	ra
10001fd0:	27bd0020 	addiu	sp,sp,32
10001fd4:	0c0005d2 	jal	10001748 <hf_free>
10001fd8:	02002021 	move	a0,s0
10001fdc:	080007ef 	j	10001fbc <hf_queue_create+0x48>
10001fe0:	00008021 	move	s0,zero

10001fe4 <hf_queue_count>:
10001fe4:	8c820004 	lw	v0,4(a0)
10001fe8:	03e00008 	jr	ra
10001fec:	00000000 	nop

10001ff0 <hf_queue_addtail>:
10001ff0:	8c820000 	lw	v0,0(a0)
10001ff4:	00000000 	nop
10001ff8:	10400011 	beqz	v0,10002040 <hf_queue_addtail+0x50>
10001ffc:	00000000 	nop
10002000:	8c86000c 	lw	a2,12(a0)
10002004:	8c870008 	lw	a3,8(a0)
10002008:	24c30001 	addiu	v1,a2,1
1000200c:	0062001a 	div	zero,v1,v0
10002010:	00001810 	mfhi	v1
10002014:	10e3000c 	beq	a3,v1,10002048 <hf_queue_addtail+0x58>
10002018:	00063080 	sll	a2,a2,0x2
1000201c:	8c820010 	lw	v0,16(a0)
10002020:	8c870004 	lw	a3,4(a0)
10002024:	00463021 	addu	a2,v0,a2
10002028:	24e70001 	addiu	a3,a3,1
1000202c:	acc50000 	sw	a1,0(a2)
10002030:	00001021 	move	v0,zero
10002034:	ac83000c 	sw	v1,12(a0)
10002038:	03e00008 	jr	ra
1000203c:	ac870004 	sw	a3,4(a0)
10002040:	03e00008 	jr	ra
10002044:	2402ffff 	li	v0,-1
10002048:	03e00008 	jr	ra
1000204c:	2402ffff 	li	v0,-1

10002050 <hf_queue_remhead>:
10002050:	8c830000 	lw	v1,0(a0)
10002054:	00000000 	nop
10002058:	10600011 	beqz	v1,100020a0 <hf_queue_remhead+0x50>
1000205c:	00000000 	nop
10002060:	8c820008 	lw	v0,8(a0)
10002064:	8c85000c 	lw	a1,12(a0)
10002068:	00000000 	nop
1000206c:	1045000e 	beq	v0,a1,100020a8 <hf_queue_remhead+0x58>
10002070:	24450001 	addiu	a1,v0,1
10002074:	00a3001a 	div	zero,a1,v1
10002078:	8c860010 	lw	a2,16(a0)
1000207c:	8c850004 	lw	a1,4(a0)
10002080:	00021080 	sll	v0,v0,0x2
10002084:	00c21021 	addu	v0,a2,v0
10002088:	24a5ffff 	addiu	a1,a1,-1
1000208c:	8c420000 	lw	v0,0(v0)
10002090:	ac850004 	sw	a1,4(a0)
10002094:	00001810 	mfhi	v1
10002098:	03e00008 	jr	ra
1000209c:	ac830008 	sw	v1,8(a0)
100020a0:	03e00008 	jr	ra
100020a4:	00001021 	move	v0,zero
100020a8:	03e00008 	jr	ra
100020ac:	00001021 	move	v0,zero

100020b0 <hf_queue_get>:
100020b0:	8c820000 	lw	v0,0(a0)
100020b4:	00000000 	nop
100020b8:	10400013 	beqz	v0,10002108 <hf_queue_get+0x58>
100020bc:	00000000 	nop
100020c0:	8c830004 	lw	v1,4(a0)
100020c4:	00000000 	nop
100020c8:	00a3182a 	slt	v1,a1,v1
100020cc:	1060000e 	beqz	v1,10002108 <hf_queue_get+0x58>
100020d0:	00000000 	nop
100020d4:	8c830008 	lw	v1,8(a0)
100020d8:	8c86000c 	lw	a2,12(a0)
100020dc:	00000000 	nop
100020e0:	1066000b 	beq	v1,a2,10002110 <hf_queue_get+0x60>
100020e4:	00a32821 	addu	a1,a1,v1
100020e8:	00a2001a 	div	zero,a1,v0
100020ec:	8c830010 	lw	v1,16(a0)
100020f0:	00001010 	mfhi	v0
100020f4:	00021080 	sll	v0,v0,0x2
100020f8:	00621021 	addu	v0,v1,v0
100020fc:	8c420000 	lw	v0,0(v0)
10002100:	03e00008 	jr	ra
10002104:	00000000 	nop
10002108:	03e00008 	jr	ra
1000210c:	00001021 	move	v0,zero
10002110:	03e00008 	jr	ra
10002114:	00001021 	move	v0,zero

10002118 <hf_queue_swap>:
10002118:	8c830000 	lw	v1,0(a0)
1000211c:	00000000 	nop
10002120:	10600022 	beqz	v1,100021ac <hf_queue_swap+0x94>
10002124:	00000000 	nop
10002128:	8c820004 	lw	v0,4(a0)
1000212c:	00000000 	nop
10002130:	00a2382a 	slt	a3,a1,v0
10002134:	10e0001d 	beqz	a3,100021ac <hf_queue_swap+0x94>
10002138:	00000000 	nop
1000213c:	00c2102a 	slt	v0,a2,v0
10002140:	1040001a 	beqz	v0,100021ac <hf_queue_swap+0x94>
10002144:	00000000 	nop
10002148:	8c820008 	lw	v0,8(a0)
1000214c:	8c87000c 	lw	a3,12(a0)
10002150:	00000000 	nop
10002154:	10470017 	beq	v0,a3,100021b4 <hf_queue_swap+0x9c>
10002158:	00c23021 	addu	a2,a2,v0
1000215c:	00c3001a 	div	zero,a2,v1
10002160:	00a22821 	addu	a1,a1,v0
10002164:	8c870010 	lw	a3,16(a0)
10002168:	00001021 	move	v0,zero
1000216c:	00003010 	mfhi	a2
10002170:	00063080 	sll	a2,a2,0x2
10002174:	00000000 	nop
10002178:	00a3001a 	div	zero,a1,v1
1000217c:	00e62821 	addu	a1,a3,a2
10002180:	8ca80000 	lw	t0,0(a1)
10002184:	00001810 	mfhi	v1
10002188:	00031880 	sll	v1,v1,0x2
1000218c:	00e33821 	addu	a3,a3,v1
10002190:	8ce30000 	lw	v1,0(a3)
10002194:	ace80000 	sw	t0,0(a3)
10002198:	8c840010 	lw	a0,16(a0)
1000219c:	00000000 	nop
100021a0:	00863021 	addu	a2,a0,a2
100021a4:	03e00008 	jr	ra
100021a8:	acc30000 	sw	v1,0(a2)
100021ac:	03e00008 	jr	ra
100021b0:	2402ffff 	li	v0,-1
100021b4:	03e00008 	jr	ra
100021b8:	2402ffff 	li	v0,-1

100021bc <rt_queue_next>:
100021bc:	27bdffe0 	addiu	sp,sp,-32
100021c0:	afb00014 	sw	s0,20(sp)
100021c4:	3c101009 	lui	s0,0x1009
100021c8:	8e04bbc0 	lw	a0,-17472(s0)
100021cc:	afb10018 	sw	s1,24(sp)
100021d0:	afbf001c 	sw	ra,28(sp)
100021d4:	0c000814 	jal	10002050 <hf_queue_remhead>
100021d8:	3c111009 	lui	s1,0x1009
100021dc:	10400010 	beqz	v0,10002220 <rt_queue_next+0x64>
100021e0:	ae22bbac 	sw	v0,-17492(s1)
100021e4:	8e04bbc0 	lw	a0,-17472(s0)
100021e8:	0c0007fc 	jal	10001ff0 <hf_queue_addtail>
100021ec:	00402821 	move	a1,v0
100021f0:	14400006 	bnez	v0,1000220c <rt_queue_next+0x50>
100021f4:	2404000b 	li	a0,11
100021f8:	8fbf001c 	lw	ra,28(sp)
100021fc:	8fb10018 	lw	s1,24(sp)
10002200:	8fb00014 	lw	s0,20(sp)
10002204:	03e00008 	jr	ra
10002208:	27bd0020 	addiu	sp,sp,32
1000220c:	8fbf001c 	lw	ra,28(sp)
10002210:	8fb10018 	lw	s1,24(sp)
10002214:	8fb00014 	lw	s0,20(sp)
10002218:	0800076f 	j	10001dbc <panic>
1000221c:	27bd0020 	addiu	sp,sp,32
10002220:	0c00076f 	jal	10001dbc <panic>
10002224:	24040006 	li	a0,6
10002228:	8e22bbac 	lw	v0,-17492(s1)
1000222c:	08000879 	j	100021e4 <rt_queue_next+0x28>
10002230:	00000000 	nop

10002234 <run_queue_next>:
10002234:	27bdffe0 	addiu	sp,sp,-32
10002238:	afb00014 	sw	s0,20(sp)
1000223c:	3c101009 	lui	s0,0x1009
10002240:	8e04bbbc 	lw	a0,-17476(s0)
10002244:	afb10018 	sw	s1,24(sp)
10002248:	afbf001c 	sw	ra,28(sp)
1000224c:	0c000814 	jal	10002050 <hf_queue_remhead>
10002250:	3c111009 	lui	s1,0x1009
10002254:	10400010 	beqz	v0,10002298 <run_queue_next+0x64>
10002258:	ae22bbac 	sw	v0,-17492(s1)
1000225c:	8e04bbbc 	lw	a0,-17476(s0)
10002260:	0c0007fc 	jal	10001ff0 <hf_queue_addtail>
10002264:	00402821 	move	a1,v0
10002268:	14400006 	bnez	v0,10002284 <run_queue_next+0x50>
1000226c:	24040009 	li	a0,9
10002270:	8fbf001c 	lw	ra,28(sp)
10002274:	8fb10018 	lw	s1,24(sp)
10002278:	8fb00014 	lw	s0,20(sp)
1000227c:	03e00008 	jr	ra
10002280:	27bd0020 	addiu	sp,sp,32
10002284:	8fbf001c 	lw	ra,28(sp)
10002288:	8fb10018 	lw	s1,24(sp)
1000228c:	8fb00014 	lw	s0,20(sp)
10002290:	0800076f 	j	10001dbc <panic>
10002294:	27bd0020 	addiu	sp,sp,32
10002298:	0c00076f 	jal	10001dbc <panic>
1000229c:	24040005 	li	a0,5
100022a0:	8e22bbac 	lw	v0,-17492(s1)
100022a4:	08000897 	j	1000225c <run_queue_next+0x28>
100022a8:	00000000 	nop

100022ac <dispatch_isr>:
100022ac:	27bdffc8 	addiu	sp,sp,-56
100022b0:	afbf0034 	sw	ra,52(sp)
100022b4:	afb60030 	sw	s6,48(sp)
100022b8:	afb5002c 	sw	s5,44(sp)
100022bc:	afb40028 	sw	s4,40(sp)
100022c0:	afb30024 	sw	s3,36(sp)
100022c4:	afb20020 	sw	s2,32(sp)
100022c8:	afb1001c 	sw	s1,28(sp)
100022cc:	0c000162 	jal	10000588 <_timer_reset>
100022d0:	afb00018 	sw	s0,24(sp)
100022d4:	3c021009 	lui	v0,0x1009
100022d8:	9442bbc4 	lhu	v0,-17468(v0)
100022dc:	00000000 	nop
100022e0:	1440000b 	bnez	v0,10002310 <dispatch_isr+0x64>
100022e4:	3c141009 	lui	s4,0x1009
100022e8:	8fbf0034 	lw	ra,52(sp)
100022ec:	8fb60030 	lw	s6,48(sp)
100022f0:	8fb5002c 	lw	s5,44(sp)
100022f4:	8fb40028 	lw	s4,40(sp)
100022f8:	8fb30024 	lw	s3,36(sp)
100022fc:	8fb20020 	lw	s2,32(sp)
10002300:	8fb1001c 	lw	s1,28(sp)
10002304:	8fb00018 	lw	s0,24(sp)
10002308:	03e00008 	jr	ra
1000230c:	27bd0038 	addiu	sp,sp,56
10002310:	9683bba8 	lhu	v1,-17496(s4)
10002314:	3c131009 	lui	s3,0x1009
10002318:	00032080 	sll	a0,v1,0x2
1000231c:	00031100 	sll	v0,v1,0x4
10002320:	00821021 	addu	v0,a0,v0
10002324:	00431823 	subu	v1,v0,v1
10002328:	3c021001 	lui	v0,0x1001
1000232c:	000318c0 	sll	v1,v1,0x3
10002330:	244207ec 	addiu	v0,v0,2028
10002334:	00431021 	addu	v0,v0,v1
10002338:	24440038 	addiu	a0,v0,56
1000233c:	0c00008f 	jal	1000023c <_context_save>
10002340:	ae62bbac 	sw	v0,-17492(s3)
10002344:	1440ffe8 	bnez	v0,100022e8 <dispatch_isr+0x3c>
10002348:	24030002 	li	v1,2
1000234c:	8e62bbac 	lw	v0,-17492(s3)
10002350:	00000000 	nop
10002354:	90440016 	lbu	a0,22(v0)
10002358:	00000000 	nop
1000235c:	1083005a 	beq	a0,v1,100024c8 <dispatch_isr+0x21c>
10002360:	24030001 	li	v1,1
10002364:	8c42008c 	lw	v0,140(v0)
10002368:	00000000 	nop
1000236c:	8c430000 	lw	v1,0(v0)
10002370:	3c02b00b 	lui	v0,0xb00b
10002374:	3442b00b 	ori	v0,v0,0xb00b
10002378:	10620004 	beq	v1,v0,1000238c <dispatch_isr+0xe0>
1000237c:	3c021009 	lui	v0,0x1009
10002380:	0c00076f 	jal	10001dbc <panic>
10002384:	24040002 	li	a0,2
10002388:	3c021009 	lui	v0,0x1009
1000238c:	9442bbb4 	lhu	v0,-17484(v0)
10002390:	00000000 	nop
10002394:	10400042 	beqz	v0,100024a0 <dispatch_isr+0x1f4>
10002398:	24040003 	li	a0,3
1000239c:	3c111009 	lui	s1,0x1009
100023a0:	8e24bbc8 	lw	a0,-17464(s1)
100023a4:	0c0007f9 	jal	10001fe4 <hf_queue_count>
100023a8:	00000000 	nop
100023ac:	18400024 	blez	v0,10002440 <dispatch_isr+0x194>
100023b0:	00409021 	move	s2,v0
100023b4:	00008021 	move	s0,zero
100023b8:	3c161009 	lui	s6,0x1009
100023bc:	080008f9 	j	100023e4 <dispatch_isr+0x138>
100023c0:	3c151009 	lui	s5,0x1009
100023c4:	8ea4bbc0 	lw	a0,-17472(s5)
100023c8:	0c0007fc 	jal	10001ff0 <hf_queue_addtail>
100023cc:	00402821 	move	a1,v0
100023d0:	14400048 	bnez	v0,100024f4 <dispatch_isr+0x248>
100023d4:	00000000 	nop
100023d8:	26100001 	addiu	s0,s0,1
100023dc:	12120018 	beq	s0,s2,10002440 <dispatch_isr+0x194>
100023e0:	00000000 	nop
100023e4:	8e24bbc8 	lw	a0,-17464(s1)
100023e8:	0c000814 	jal	10002050 <hf_queue_remhead>
100023ec:	00000000 	nop
100023f0:	10400044 	beqz	v0,10002504 <dispatch_isr+0x258>
100023f4:	24040007 	li	a0,7
100023f8:	8c43001c 	lw	v1,28(v0)
100023fc:	00000000 	nop
10002400:	2463ffff 	addiu	v1,v1,-1
10002404:	14600032 	bnez	v1,100024d0 <dispatch_isr+0x224>
10002408:	ac43001c 	sw	v1,28(v0)
1000240c:	9443002c 	lhu	v1,44(v0)
10002410:	00000000 	nop
10002414:	1460ffeb 	bnez	v1,100023c4 <dispatch_isr+0x118>
10002418:	00000000 	nop
1000241c:	8ec4bbbc 	lw	a0,-17476(s6)
10002420:	0c0007fc 	jal	10001ff0 <hf_queue_addtail>
10002424:	00402821 	move	a1,v0
10002428:	1040ffeb 	beqz	v0,100023d8 <dispatch_isr+0x12c>
1000242c:	24040009 	li	a0,9
10002430:	0c00076f 	jal	10001dbc <panic>
10002434:	26100001 	addiu	s0,s0,1
10002438:	1612ffea 	bne	s0,s2,100023e4 <dispatch_isr+0x138>
1000243c:	00000000 	nop
10002440:	3c101009 	lui	s0,0x1009
10002444:	8e02badc 	lw	v0,-17700(s0)
10002448:	00000000 	nop
1000244c:	0040f809 	jalr	v0
10002450:	2610badc 	addiu	s0,s0,-17700
10002454:	3042ffff 	andi	v0,v0,0xffff
10002458:	14400007 	bnez	v0,10002478 <dispatch_isr+0x1cc>
1000245c:	a682bba8 	sh	v0,-17496(s4)
10002460:	8e020004 	lw	v0,4(s0)
10002464:	00000000 	nop
10002468:	0040f809 	jalr	v0
1000246c:	00000000 	nop
10002470:	3c031009 	lui	v1,0x1009
10002474:	a462bba8 	sh	v0,-17496(v1)
10002478:	8e02000c 	lw	v0,12(s0)
1000247c:	8e63bbac 	lw	v1,-17492(s3)
10002480:	24420001 	addiu	v0,v0,1
10002484:	24050002 	li	a1,2
10002488:	24640038 	addiu	a0,v1,56
1000248c:	a0650016 	sb	a1,22(v1)
10002490:	ae02000c 	sw	v0,12(s0)
10002494:	0c00009d 	jal	10000274 <_context_restore>
10002498:	24050001 	li	a1,1
1000249c:	240400ff 	li	a0,255
100024a0:	8fbf0034 	lw	ra,52(sp)
100024a4:	8fb60030 	lw	s6,48(sp)
100024a8:	8fb5002c 	lw	s5,44(sp)
100024ac:	8fb40028 	lw	s4,40(sp)
100024b0:	8fb30024 	lw	s3,36(sp)
100024b4:	8fb20020 	lw	s2,32(sp)
100024b8:	8fb1001c 	lw	s1,28(sp)
100024bc:	8fb00018 	lw	s0,24(sp)
100024c0:	0800076f 	j	10001dbc <panic>
100024c4:	27bd0038 	addiu	sp,sp,56
100024c8:	080008d9 	j	10002364 <dispatch_isr+0xb8>
100024cc:	a0430016 	sb	v1,22(v0)
100024d0:	8e24bbc8 	lw	a0,-17464(s1)
100024d4:	0c0007fc 	jal	10001ff0 <hf_queue_addtail>
100024d8:	00402821 	move	a1,v0
100024dc:	1040ffbe 	beqz	v0,100023d8 <dispatch_isr+0x12c>
100024e0:	00000000 	nop
100024e4:	0c00076f 	jal	10001dbc <panic>
100024e8:	2404000a 	li	a0,10
100024ec:	080008f7 	j	100023dc <dispatch_isr+0x130>
100024f0:	26100001 	addiu	s0,s0,1
100024f4:	0c00076f 	jal	10001dbc <panic>
100024f8:	2404000b 	li	a0,11
100024fc:	080008f7 	j	100023dc <dispatch_isr+0x130>
10002500:	26100001 	addiu	s0,s0,1
10002504:	0c00076f 	jal	10001dbc <panic>
10002508:	afa20010 	sw	v0,16(sp)
1000250c:	8fa20010 	lw	v0,16(sp)
10002510:	080008fe 	j	100023f8 <dispatch_isr+0x14c>
10002514:	00000000 	nop

10002518 <sched_priorityrr>:
10002518:	3c021009 	lui	v0,0x1009
1000251c:	8c44bbbc 	lw	a0,-17476(v0)
10002520:	27bdffd0 	addiu	sp,sp,-48
10002524:	afb2001c 	sw	s2,28(sp)
10002528:	afbf002c 	sw	ra,44(sp)
1000252c:	afb50028 	sw	s5,40(sp)
10002530:	afb40024 	sw	s4,36(sp)
10002534:	afb30020 	sw	s3,32(sp)
10002538:	afb10018 	sw	s1,24(sp)
1000253c:	0c0007f9 	jal	10001fe4 <hf_queue_count>
10002540:	afb00014 	sw	s0,20(sp)
10002544:	10400043 	beqz	v0,10002654 <sched_priorityrr+0x13c>
10002548:	00409021 	move	s2,v0
1000254c:	0c00088d 	jal	10002234 <run_queue_next>
10002550:	00000000 	nop
10002554:	1a400043 	blez	s2,10002664 <sched_priorityrr+0x14c>
10002558:	241400ff 	li	s4,255
1000255c:	00008021 	move	s0,zero
10002560:	00008821 	move	s1,zero
10002564:	3c131009 	lui	s3,0x1009
10002568:	24150003 	li	s5,3
1000256c:	0c00088d 	jal	10002234 <run_queue_next>
10002570:	26310001 	addiu	s1,s1,1
10002574:	8e62bbac 	lw	v0,-17492(s3)
10002578:	00000000 	nop
1000257c:	90430019 	lbu	v1,25(v0)
10002580:	00000000 	nop
10002584:	10600005 	beqz	v1,1000259c <sched_priorityrr+0x84>
10002588:	00000000 	nop
1000258c:	90430016 	lbu	v1,22(v0)
10002590:	00000000 	nop
10002594:	1475002c 	bne	v1,s5,10002648 <sched_priorityrr+0x130>
10002598:	00000000 	nop
1000259c:	90430018 	lbu	v1,24(v0)
100025a0:	00000000 	nop
100025a4:	0074202b 	sltu	a0,v1,s4
100025a8:	10800007 	beqz	a0,100025c8 <sched_priorityrr+0xb0>
100025ac:	00000000 	nop
100025b0:	90440016 	lbu	a0,22(v0)
100025b4:	00000000 	nop
100025b8:	10950003 	beq	a0,s5,100025c8 <sched_priorityrr+0xb0>
100025bc:	00000000 	nop
100025c0:	00408021 	move	s0,v0
100025c4:	0060a021 	move	s4,v1
100025c8:	1632ffe8 	bne	s1,s2,1000256c <sched_priorityrr+0x54>
100025cc:	00000000 	nop
100025d0:	00008821 	move	s1,zero
100025d4:	0c00088d 	jal	10002234 <run_queue_next>
100025d8:	26310001 	addiu	s1,s1,1
100025dc:	8e62bbac 	lw	v0,-17492(s3)
100025e0:	00000000 	nop
100025e4:	12020006 	beq	s0,v0,10002600 <sched_priorityrr+0xe8>
100025e8:	00000000 	nop
100025ec:	90440018 	lbu	a0,24(v0)
100025f0:	92030018 	lbu	v1,24(s0)
100025f4:	00000000 	nop
100025f8:	00831823 	subu	v1,a0,v1
100025fc:	a0430018 	sb	v1,24(v0)
10002600:	1632fff4 	bne	s1,s2,100025d4 <sched_priorityrr+0xbc>
10002604:	00000000 	nop
10002608:	92020017 	lbu	v0,23(s0)
1000260c:	ae70bbac 	sw	s0,-17492(s3)
10002610:	a2020018 	sb	v0,24(s0)
10002614:	8e030024 	lw	v1,36(s0)
10002618:	8fbf002c 	lw	ra,44(sp)
1000261c:	24630001 	addiu	v1,v1,1
10002620:	96020000 	lhu	v0,0(s0)
10002624:	ae030024 	sw	v1,36(s0)
10002628:	8fb50028 	lw	s5,40(sp)
1000262c:	8fb40024 	lw	s4,36(sp)
10002630:	8fb30020 	lw	s3,32(sp)
10002634:	8fb2001c 	lw	s2,28(sp)
10002638:	8fb10018 	lw	s1,24(sp)
1000263c:	8fb00014 	lw	s0,20(sp)
10002640:	03e00008 	jr	ra
10002644:	27bd0030 	addiu	sp,sp,48
10002648:	a0400019 	sb	zero,25(v0)
1000264c:	08000985 	j	10002614 <sched_priorityrr+0xfc>
10002650:	00408021 	move	s0,v0
10002654:	0c00076f 	jal	10001dbc <panic>
10002658:	24040005 	li	a0,5
1000265c:	0c00088d 	jal	10002234 <run_queue_next>
10002660:	00000000 	nop
10002664:	00008021 	move	s0,zero
10002668:	08000982 	j	10002608 <sched_priorityrr+0xf0>
1000266c:	3c131009 	lui	s3,0x1009

10002670 <sched_edf>:
10002670:	27bdffc8 	addiu	sp,sp,-56
10002674:	afb10018 	sw	s1,24(sp)
10002678:	3c111009 	lui	s1,0x1009
1000267c:	8e24bbc0 	lw	a0,-17472(s1)
10002680:	afb30020 	sw	s3,32(sp)
10002684:	afbf0034 	sw	ra,52(sp)
10002688:	afb70030 	sw	s7,48(sp)
1000268c:	afb6002c 	sw	s6,44(sp)
10002690:	afb50028 	sw	s5,40(sp)
10002694:	afb40024 	sw	s4,36(sp)
10002698:	afb2001c 	sw	s2,28(sp)
1000269c:	0c0007f9 	jal	10001fe4 <hf_queue_count>
100026a0:	afb00014 	sw	s0,20(sp)
100026a4:	10400070 	beqz	v0,10002868 <sched_edf+0x1f8>
100026a8:	00409821 	move	s3,v0
100026ac:	2456ffff 	addiu	s6,v0,-1
100026b0:	00009021 	move	s2,zero
100026b4:	0256102a 	slt	v0,s2,s6
100026b8:	10400024 	beqz	v0,1000274c <sched_edf+0xdc>
100026bc:	0220a821 	move	s5,s1
100026c0:	26540001 	addiu	s4,s2,1
100026c4:	0293102a 	slt	v0,s4,s3
100026c8:	1040001c 	beqz	v0,1000273c <sched_edf+0xcc>
100026cc:	00000000 	nop
100026d0:	080009b9 	j	100026e4 <sched_edf+0x74>
100026d4:	02808021 	move	s0,s4
100026d8:	26100001 	addiu	s0,s0,1
100026dc:	12130017 	beq	s0,s3,1000273c <sched_edf+0xcc>
100026e0:	00000000 	nop
100026e4:	8e24bbc0 	lw	a0,-17472(s1)
100026e8:	0c00082c 	jal	100020b0 <hf_queue_get>
100026ec:	02402821 	move	a1,s2
100026f0:	8e24bbc0 	lw	a0,-17472(s1)
100026f4:	02002821 	move	a1,s0
100026f8:	0c00082c 	jal	100020b0 <hf_queue_get>
100026fc:	0040b821 	move	s7,v0
10002700:	94420034 	lhu	v0,52(v0)
10002704:	96e30034 	lhu	v1,52(s7)
10002708:	00000000 	nop
1000270c:	0043102b 	sltu	v0,v0,v1
10002710:	1040fff1 	beqz	v0,100026d8 <sched_edf+0x68>
10002714:	02003021 	move	a2,s0
10002718:	8ea4bbc0 	lw	a0,-17472(s5)
1000271c:	0c000846 	jal	10002118 <hf_queue_swap>
10002720:	02402821 	move	a1,s2
10002724:	1040ffec 	beqz	v0,100026d8 <sched_edf+0x68>
10002728:	2404000c 	li	a0,12
1000272c:	0c00076f 	jal	10001dbc <panic>
10002730:	26100001 	addiu	s0,s0,1
10002734:	1613ffeb 	bne	s0,s3,100026e4 <sched_edf+0x74>
10002738:	00000000 	nop
1000273c:	02809021 	move	s2,s4
10002740:	0296102a 	slt	v0,s4,s6
10002744:	1440ffdf 	bnez	v0,100026c4 <sched_edf+0x54>
10002748:	26540001 	addiu	s4,s2,1
1000274c:	1a600048 	blez	s3,10002870 <sched_edf+0x200>
10002750:	0000a021 	move	s4,zero
10002754:	00008021 	move	s0,zero
10002758:	3c111009 	lui	s1,0x1009
1000275c:	24120003 	li	s2,3
10002760:	0c00086f 	jal	100021bc <rt_queue_next>
10002764:	26100001 	addiu	s0,s0,1
10002768:	8e22bbac 	lw	v0,-17492(s1)
1000276c:	00000000 	nop
10002770:	90430016 	lbu	v1,22(v0)
10002774:	00000000 	nop
10002778:	10720009 	beq	v1,s2,100027a0 <sched_edf+0x130>
1000277c:	00000000 	nop
10002780:	94430032 	lhu	v1,50(v0)
10002784:	00000000 	nop
10002788:	10600005 	beqz	v1,100027a0 <sched_edf+0x130>
1000278c:	00000000 	nop
10002790:	16800003 	bnez	s4,100027a0 <sched_edf+0x130>
10002794:	2463ffff 	addiu	v1,v1,-1
10002798:	94540000 	lhu	s4,0(v0)
1000279c:	a4430032 	sh	v1,50(v0)
100027a0:	94430034 	lhu	v1,52(v0)
100027a4:	00000000 	nop
100027a8:	2463ffff 	addiu	v1,v1,-1
100027ac:	3063ffff 	andi	v1,v1,0xffff
100027b0:	1460000d 	bnez	v1,100027e8 <sched_edf+0x178>
100027b4:	a4430034 	sh	v1,52(v0)
100027b8:	9444002c 	lhu	a0,44(v0)
100027bc:	94430032 	lhu	v1,50(v0)
100027c0:	00000000 	nop
100027c4:	10600005 	beqz	v1,100027dc <sched_edf+0x16c>
100027c8:	a4440034 	sh	a0,52(v0)
100027cc:	8c430028 	lw	v1,40(v0)
100027d0:	00000000 	nop
100027d4:	24630001 	addiu	v1,v1,1
100027d8:	ac430028 	sw	v1,40(v0)
100027dc:	9443002e 	lhu	v1,46(v0)
100027e0:	00000000 	nop
100027e4:	a4430032 	sh	v1,50(v0)
100027e8:	1613ffdd 	bne	s0,s3,10002760 <sched_edf+0xf0>
100027ec:	00000000 	nop
100027f0:	16800010 	bnez	s4,10002834 <sched_edf+0x1c4>
100027f4:	00141100 	sll	v0,s4,0x4
100027f8:	3c021001 	lui	v0,0x1001
100027fc:	244207ec 	addiu	v0,v0,2028
10002800:	ae22bbac 	sw	v0,-17492(s1)
10002804:	00001021 	move	v0,zero
10002808:	8fbf0034 	lw	ra,52(sp)
1000280c:	8fb70030 	lw	s7,48(sp)
10002810:	8fb6002c 	lw	s6,44(sp)
10002814:	8fb50028 	lw	s5,40(sp)
10002818:	8fb40024 	lw	s4,36(sp)
1000281c:	8fb30020 	lw	s3,32(sp)
10002820:	8fb2001c 	lw	s2,28(sp)
10002824:	8fb10018 	lw	s1,24(sp)
10002828:	8fb00014 	lw	s0,20(sp)
1000282c:	03e00008 	jr	ra
10002830:	27bd0038 	addiu	sp,sp,56
10002834:	00141880 	sll	v1,s4,0x2
10002838:	00621821 	addu	v1,v1,v0
1000283c:	00741823 	subu	v1,v1,s4
10002840:	3c021001 	lui	v0,0x1001
10002844:	000318c0 	sll	v1,v1,0x3
10002848:	244207ec 	addiu	v0,v0,2028
1000284c:	00431021 	addu	v0,v0,v1
10002850:	8c430020 	lw	v1,32(v0)
10002854:	ae22bbac 	sw	v0,-17492(s1)
10002858:	24630001 	addiu	v1,v1,1
1000285c:	ac430020 	sw	v1,32(v0)
10002860:	08000a02 	j	10002808 <sched_edf+0x198>
10002864:	02801021 	move	v0,s4
10002868:	08000a02 	j	10002808 <sched_edf+0x198>
1000286c:	00001021 	move	v0,zero
10002870:	080009fe 	j	100027f8 <sched_edf+0x188>
10002874:	3c111009 	lui	s1,0x1009

10002878 <hf_spawn>:
10002878:	27bdffa0 	addiu	sp,sp,-96
1000287c:	afb40048 	sw	s4,72(sp)
10002880:	afb20040 	sw	s2,64(sp)
10002884:	30b4ffff 	andi	s4,a1,0xffff
10002888:	30d2ffff 	andi	s2,a2,0xffff
1000288c:	0292102b 	sltu	v0,s4,s2
10002890:	afb60050 	sw	s6,80(sp)
10002894:	afb5004c 	sw	s5,76(sp)
10002898:	afbf005c 	sw	ra,92(sp)
1000289c:	afbe0058 	sw	s8,88(sp)
100028a0:	afb70054 	sw	s7,84(sp)
100028a4:	afb30044 	sw	s3,68(sp)
100028a8:	afb1003c 	sw	s1,60(sp)
100028ac:	afb00038 	sw	s0,56(sp)
100028b0:	0080a821 	move	s5,a0
100028b4:	30f6ffff 	andi	s6,a3,0xffff
100028b8:	afa00028 	sw	zero,40(sp)
100028bc:	14400096 	bnez	v0,10002b18 <hf_spawn+0x2a0>
100028c0:	2402ff9b 	li	v0,-101
100028c4:	02d2102b 	sltu	v0,s6,s2
100028c8:	14400093 	bnez	v0,10002b18 <hf_spawn+0x2a0>
100028cc:	2402ff9b 	li	v0,-101
100028d0:	0c00007b 	jal	100001ec <_interrupt_set>
100028d4:	00002021 	move	a0,zero
100028d8:	afa2002c 	sw	v0,44(sp)
100028dc:	8fa20028 	lw	v0,40(sp)
100028e0:	3c101001 	lui	s0,0x1001
100028e4:	00022080 	sll	a0,v0,0x2
100028e8:	00021900 	sll	v1,v0,0x4
100028ec:	00831821 	addu	v1,a0,v1
100028f0:	00621023 	subu	v0,v1,v0
100028f4:	000210c0 	sll	v0,v0,0x3
100028f8:	261007ec 	addiu	s0,s0,2028
100028fc:	02021021 	addu	v0,s0,v0
10002900:	8c420088 	lw	v0,136(v0)
10002904:	00000000 	nop
10002908:	14400013 	bnez	v0,10002958 <hf_spawn+0xe0>
1000290c:	00000000 	nop
10002910:	08000a5b 	j	1000296c <hf_spawn+0xf4>
10002914:	00000000 	nop
10002918:	8fa20028 	lw	v0,40(sp)
1000291c:	00000000 	nop
10002920:	24420001 	addiu	v0,v0,1
10002924:	afa20028 	sw	v0,40(sp)
10002928:	8fa20028 	lw	v0,40(sp)
1000292c:	00000000 	nop
10002930:	00022080 	sll	a0,v0,0x2
10002934:	00021900 	sll	v1,v0,0x4
10002938:	00831821 	addu	v1,a0,v1
1000293c:	00621023 	subu	v0,v1,v0
10002940:	000210c0 	sll	v0,v0,0x3
10002944:	02021021 	addu	v0,s0,v0
10002948:	8c420088 	lw	v0,136(v0)
1000294c:	00000000 	nop
10002950:	10400006 	beqz	v0,1000296c <hf_spawn+0xf4>
10002954:	00000000 	nop
10002958:	8fa20028 	lw	v0,40(sp)
1000295c:	00000000 	nop
10002960:	2c42001e 	sltiu	v0,v0,30
10002964:	1440ffec 	bnez	v0,10002918 <hf_spawn+0xa0>
10002968:	00000000 	nop
1000296c:	8fa30028 	lw	v1,40(sp)
10002970:	2402001e 	li	v0,30
10002974:	1062008d 	beq	v1,v0,10002bac <hf_spawn+0x334>
10002978:	3c041000 	lui	a0,0x1000
1000297c:	8fa20028 	lw	v0,40(sp)
10002980:	3c171009 	lui	s7,0x1009
10002984:	00022080 	sll	a0,v0,0x2
10002988:	00021900 	sll	v1,v0,0x4
1000298c:	00831821 	addu	v1,a0,v1
10002990:	00621023 	subu	v0,v1,v0
10002994:	96e7bbb4 	lhu	a3,-17484(s7)
10002998:	8fa30028 	lw	v1,40(sp)
1000299c:	000210c0 	sll	v0,v0,0x3
100029a0:	02021021 	addu	v0,s0,v0
100029a4:	8fa50070 	lw	a1,112(sp)
100029a8:	3c111009 	lui	s1,0x1009
100029ac:	24e70001 	addiu	a3,a3,1
100029b0:	24060014 	li	a2,20
100029b4:	a4430000 	sh	v1,0(v0)
100029b8:	24440002 	addiu	a0,v0,2
100029bc:	a6e7bbb4 	sh	a3,-17484(s7)
100029c0:	0c0004a0 	jal	10001280 <strncpy>
100029c4:	ae22bbac 	sw	v0,-17492(s1)
100029c8:	8fb30074 	lw	s3,116(sp)
100029cc:	8e3ebbac 	lw	s8,-17492(s1)
100029d0:	26730003 	addiu	s3,s3,3
100029d4:	00139882 	srl	s3,s3,0x2
100029d8:	00139880 	sll	s3,s3,0x2
100029dc:	24020064 	li	v0,100
100029e0:	02602021 	move	a0,s3
100029e4:	a3c00016 	sb	zero,22(s8)
100029e8:	a3c20017 	sb	v0,23(s8)
100029ec:	a3c20018 	sb	v0,24(s8)
100029f0:	afc0001c 	sw	zero,28(s8)
100029f4:	a7d4002c 	sh	s4,44(s8)
100029f8:	a7d2002e 	sh	s2,46(s8)
100029fc:	a7d60030 	sh	s6,48(s8)
10002a00:	a7d20032 	sh	s2,50(s8)
10002a04:	a7d60034 	sh	s6,52(s8)
10002a08:	afc00020 	sw	zero,32(s8)
10002a0c:	afc00024 	sw	zero,36(s8)
10002a10:	afc00028 	sw	zero,40(s8)
10002a14:	afd50088 	sw	s5,136(s8)
10002a18:	0c0005ed 	jal	100017b4 <hf_malloc>
10002a1c:	afd30090 	sw	s3,144(s8)
10002a20:	8e23bbac 	lw	v1,-17492(s1)
10002a24:	afc2008c 	sw	v0,140(s8)
10002a28:	8c65008c 	lw	a1,140(v1)
10002a2c:	94640000 	lhu	a0,0(v1)
10002a30:	24a5fffc 	addiu	a1,a1,-4
10002a34:	0c000117 	jal	1000045c <_set_task_sp>
10002a38:	00b32821 	addu	a1,a1,s3
10002a3c:	8e22bbac 	lw	v0,-17492(s1)
10002a40:	00000000 	nop
10002a44:	94440000 	lhu	a0,0(v0)
10002a48:	8c450088 	lw	a1,136(v0)
10002a4c:	0c00012e 	jal	100004b8 <_set_task_tp>
10002a50:	00000000 	nop
10002a54:	8e3ebbac 	lw	s8,-17492(s1)
10002a58:	00000000 	nop
10002a5c:	8fc2008c 	lw	v0,140(s8)
10002a60:	00000000 	nop
10002a64:	10400042 	beqz	v0,10002b70 <hf_spawn+0x2f8>
10002a68:	3c03b00b 	lui	v1,0xb00b
10002a6c:	97c60000 	lhu	a2,0(s8)
10002a70:	97c7002c 	lhu	a3,44(s8)
10002a74:	3463b00b 	ori	v1,v1,0xb00b
10002a78:	00c02021 	move	a0,a2
10002a7c:	ac430000 	sw	v1,0(v0)
10002a80:	97d6002e 	lhu	s6,46(s8)
10002a84:	97d50030 	lhu	s5,48(s8)
10002a88:	8fd20088 	lw	s2,136(s8)
10002a8c:	afa60034 	sw	a2,52(sp)
10002a90:	0c000122 	jal	10000488 <_get_task_sp>
10002a94:	afa70030 	sw	a3,48(sp)
10002a98:	3c041000 	lui	a0,0x1000
10002a9c:	8fa60034 	lw	a2,52(sp)
10002aa0:	8fa70030 	lw	a3,48(sp)
10002aa4:	24843304 	addiu	a0,a0,13060
10002aa8:	27c50002 	addiu	a1,s8,2
10002aac:	afb60010 	sw	s6,16(sp)
10002ab0:	afb50014 	sw	s5,20(sp)
10002ab4:	afb20018 	sw	s2,24(sp)
10002ab8:	afa2001c 	sw	v0,28(sp)
10002abc:	0c0001f7 	jal	100007dc <kprintf>
10002ac0:	afb30020 	sw	s3,32(sp)
10002ac4:	16800020 	bnez	s4,10002b48 <hf_spawn+0x2d0>
10002ac8:	3c021009 	lui	v0,0x1009
10002acc:	3c021009 	lui	v0,0x1009
10002ad0:	8c44bbbc 	lw	a0,-17476(v0)
10002ad4:	8e25bbac 	lw	a1,-17492(s1)
10002ad8:	0c0007fc 	jal	10001ff0 <hf_queue_addtail>
10002adc:	00000000 	nop
10002ae0:	1440002e 	bnez	v0,10002b9c <hf_spawn+0x324>
10002ae4:	00000000 	nop
10002ae8:	3c021009 	lui	v0,0x1009
10002aec:	9442bba8 	lhu	v0,-17496(v0)
10002af0:	8fa4002c 	lw	a0,44(sp)
10002af4:	00022880 	sll	a1,v0,0x2
10002af8:	00021900 	sll	v1,v0,0x4
10002afc:	00a31821 	addu	v1,a1,v1
10002b00:	00621023 	subu	v0,v1,v0
10002b04:	000210c0 	sll	v0,v0,0x3
10002b08:	02028021 	addu	s0,s0,v0
10002b0c:	0c00007b 	jal	100001ec <_interrupt_set>
10002b10:	ae30bbac 	sw	s0,-17492(s1)
10002b14:	8fa20028 	lw	v0,40(sp)
10002b18:	8fbf005c 	lw	ra,92(sp)
10002b1c:	8fbe0058 	lw	s8,88(sp)
10002b20:	8fb70054 	lw	s7,84(sp)
10002b24:	8fb60050 	lw	s6,80(sp)
10002b28:	8fb5004c 	lw	s5,76(sp)
10002b2c:	8fb40048 	lw	s4,72(sp)
10002b30:	8fb30044 	lw	s3,68(sp)
10002b34:	8fb20040 	lw	s2,64(sp)
10002b38:	8fb1003c 	lw	s1,60(sp)
10002b3c:	8fb00038 	lw	s0,56(sp)
10002b40:	03e00008 	jr	ra
10002b44:	27bd0060 	addiu	sp,sp,96
10002b48:	8c44bbc0 	lw	a0,-17472(v0)
10002b4c:	8e25bbac 	lw	a1,-17492(s1)
10002b50:	0c0007fc 	jal	10001ff0 <hf_queue_addtail>
10002b54:	00000000 	nop
10002b58:	1040ffe3 	beqz	v0,10002ae8 <hf_spawn+0x270>
10002b5c:	00000000 	nop
10002b60:	0c00076f 	jal	10001dbc <panic>
10002b64:	2404000b 	li	a0,11
10002b68:	08000abb 	j	10002aec <hf_spawn+0x274>
10002b6c:	3c021009 	lui	v0,0x1009
10002b70:	96e2bbb4 	lhu	v0,-17484(s7)
10002b74:	3c041000 	lui	a0,0x1000
10002b78:	2442ffff 	addiu	v0,v0,-1
10002b7c:	afc00088 	sw	zero,136(s8)
10002b80:	2484334c 	addiu	a0,a0,13132
10002b84:	0c0001f7 	jal	100007dc <kprintf>
10002b88:	a6e2bbb4 	sh	v0,-17484(s7)
10002b8c:	2402ff98 	li	v0,-104
10002b90:	afa20028 	sw	v0,40(sp)
10002b94:	08000abb 	j	10002aec <hf_spawn+0x274>
10002b98:	3c021009 	lui	v0,0x1009
10002b9c:	0c00076f 	jal	10001dbc <panic>
10002ba0:	24040009 	li	a0,9
10002ba4:	08000abb 	j	10002aec <hf_spawn+0x274>
10002ba8:	3c021009 	lui	v0,0x1009
10002bac:	248432dc 	addiu	a0,a0,13020
10002bb0:	0c0001f7 	jal	100007dc <kprintf>
10002bb4:	2405001e 	li	a1,30
10002bb8:	8fa4002c 	lw	a0,44(sp)
10002bbc:	0c00007b 	jal	100001ec <_interrupt_set>
10002bc0:	00000000 	nop
10002bc4:	08000ac6 	j	10002b18 <hf_spawn+0x2a0>
10002bc8:	2402ff99 	li	v0,-103
